
Heizkoerperthermostat.elf:     file format elf32-avr

Sections:
Idx Name          Size      VMA       LMA       File off  Algn
  0 .data         0000006c  00800100  00001cdc  00001d70  2**0
                  CONTENTS, ALLOC, LOAD, DATA
  1 .text         00001cdc  00000000  00000000  00000094  2**1
                  CONTENTS, ALLOC, LOAD, READONLY, CODE
  2 .bss          00000053  0080016c  0080016c  00001ddc  2**0
                  ALLOC
  3 .comment      00000030  00000000  00000000  00001ddc  2**0
                  CONTENTS, READONLY
  4 .note.gnu.avr.deviceinfo 00000040  00000000  00000000  00001e0c  2**2
                  CONTENTS, READONLY
  5 .debug_aranges 00000418  00000000  00000000  00001e4c  2**0
                  CONTENTS, READONLY, DEBUGGING
  6 .debug_info   0000250d  00000000  00000000  00002264  2**0
                  CONTENTS, READONLY, DEBUGGING
  7 .debug_abbrev 00000fa0  00000000  00000000  00004771  2**0
                  CONTENTS, READONLY, DEBUGGING
  8 .debug_line   00001e99  00000000  00000000  00005711  2**0
                  CONTENTS, READONLY, DEBUGGING
  9 .debug_frame  00000d30  00000000  00000000  000075ac  2**2
                  CONTENTS, READONLY, DEBUGGING
 10 .debug_str    0000108d  00000000  00000000  000082dc  2**0
                  CONTENTS, READONLY, DEBUGGING
 11 .debug_loc    00001934  00000000  00000000  00009369  2**0
                  CONTENTS, READONLY, DEBUGGING
 12 .debug_ranges 00000338  00000000  00000000  0000ac9d  2**0
                  CONTENTS, READONLY, DEBUGGING

Disassembly of section .text:

00000000 <__vectors>:
       0:	19 c0       	rjmp	.+50     	; 0x34 <__ctors_end>
       2:	33 c0       	rjmp	.+102    	; 0x6a <__bad_interrupt>
       4:	32 c0       	rjmp	.+100    	; 0x6a <__bad_interrupt>
       6:	31 c0       	rjmp	.+98     	; 0x6a <__bad_interrupt>
       8:	30 c0       	rjmp	.+96     	; 0x6a <__bad_interrupt>
       a:	2f c0       	rjmp	.+94     	; 0x6a <__bad_interrupt>
       c:	2e c0       	rjmp	.+92     	; 0x6a <__bad_interrupt>
       e:	bd cb       	rjmp	.-2182   	; 0xfffff78a <__eeprom_end+0xff7ef78a>
      10:	2c c0       	rjmp	.+88     	; 0x6a <__bad_interrupt>
      12:	2b c0       	rjmp	.+86     	; 0x6a <__bad_interrupt>
      14:	2a c0       	rjmp	.+84     	; 0x6a <__bad_interrupt>
      16:	65 cb       	rjmp	.-2358   	; 0xfffff6e2 <__eeprom_end+0xff7ef6e2>
      18:	28 c0       	rjmp	.+80     	; 0x6a <__bad_interrupt>
      1a:	27 c0       	rjmp	.+78     	; 0x6a <__bad_interrupt>
      1c:	26 c0       	rjmp	.+76     	; 0x6a <__bad_interrupt>
      1e:	25 c0       	rjmp	.+74     	; 0x6a <__bad_interrupt>
      20:	24 c0       	rjmp	.+72     	; 0x6a <__bad_interrupt>
      22:	23 c0       	rjmp	.+70     	; 0x6a <__bad_interrupt>
      24:	22 c0       	rjmp	.+68     	; 0x6a <__bad_interrupt>
      26:	21 c0       	rjmp	.+66     	; 0x6a <__bad_interrupt>
      28:	20 c0       	rjmp	.+64     	; 0x6a <__bad_interrupt>
      2a:	1f c0       	rjmp	.+62     	; 0x6a <__bad_interrupt>
      2c:	1e c0       	rjmp	.+60     	; 0x6a <__bad_interrupt>
      2e:	1d c0       	rjmp	.+58     	; 0x6a <__bad_interrupt>
      30:	2a cd       	rjmp	.-1452   	; 0xfffffa86 <__eeprom_end+0xff7efa86>
      32:	1b c0       	rjmp	.+54     	; 0x6a <__bad_interrupt>

00000034 <__ctors_end>:
      34:	11 24       	eor	r1, r1
      36:	1f be       	out	0x3f, r1	; 63
      38:	cf ef       	ldi	r28, 0xFF	; 255
      3a:	d4 e0       	ldi	r29, 0x04	; 4
      3c:	de bf       	out	0x3e, r29	; 62
      3e:	cd bf       	out	0x3d, r28	; 61

00000040 <__do_copy_data>:
      40:	11 e0       	ldi	r17, 0x01	; 1
      42:	a0 e0       	ldi	r26, 0x00	; 0
      44:	b1 e0       	ldi	r27, 0x01	; 1
      46:	ec ed       	ldi	r30, 0xDC	; 220
      48:	fc e1       	ldi	r31, 0x1C	; 28
      4a:	02 c0       	rjmp	.+4      	; 0x50 <__do_copy_data+0x10>
      4c:	05 90       	lpm	r0, Z+
      4e:	0d 92       	st	X+, r0
      50:	ac 36       	cpi	r26, 0x6C	; 108
      52:	b1 07       	cpc	r27, r17
      54:	d9 f7       	brne	.-10     	; 0x4c <__do_copy_data+0xc>

00000056 <__do_clear_bss>:
      56:	21 e0       	ldi	r18, 0x01	; 1
      58:	ac e6       	ldi	r26, 0x6C	; 108
      5a:	b1 e0       	ldi	r27, 0x01	; 1
      5c:	01 c0       	rjmp	.+2      	; 0x60 <.do_clear_bss_start>

0000005e <.do_clear_bss_loop>:
      5e:	1d 92       	st	X+, r1

00000060 <.do_clear_bss_start>:
      60:	af 3b       	cpi	r26, 0xBF	; 191
      62:	b2 07       	cpc	r27, r18
      64:	e1 f7       	brne	.-8      	; 0x5e <.do_clear_bss_loop>
      66:	0b d4       	rcall	.+2070   	; 0x87e <main>
      68:	37 ce       	rjmp	.-914    	; 0xfffffcd8 <__eeprom_end+0xff7efcd8>

0000006a <__bad_interrupt>:
      6a:	ca cf       	rjmp	.-108    	; 0x0 <__vectors>

0000006c <TempController>:
      6c:	cf 93       	push	r28
      6e:	df 93       	push	r29
      70:	cd b7       	in	r28, 0x3d	; 61
      72:	de b7       	in	r29, 0x3e	; 62
      74:	28 97       	sbiw	r28, 0x08	; 8
      76:	0f b6       	in	r0, 0x3f	; 63
      78:	f8 94       	cli
      7a:	de bf       	out	0x3e, r29	; 62
      7c:	0f be       	out	0x3f, r0	; 63
      7e:	cd bf       	out	0x3d, r28	; 61
      80:	9c 83       	std	Y+4, r25	; 0x04
      82:	8b 83       	std	Y+3, r24	; 0x03
      84:	7e 83       	std	Y+6, r23	; 0x06
      86:	6d 83       	std	Y+5, r22	; 0x05
      88:	4f 83       	std	Y+7, r20	; 0x07
      8a:	28 87       	std	Y+8, r18	; 0x08
      8c:	2d 81       	ldd	r18, Y+5	; 0x05
      8e:	3e 81       	ldd	r19, Y+6	; 0x06
      90:	8b 81       	ldd	r24, Y+3	; 0x03
      92:	9c 81       	ldd	r25, Y+4	; 0x04
      94:	a9 01       	movw	r20, r18
      96:	48 1b       	sub	r20, r24
      98:	59 0b       	sbc	r21, r25
      9a:	ca 01       	movw	r24, r20
      9c:	9a 83       	std	Y+2, r25	; 0x02
      9e:	89 83       	std	Y+1, r24	; 0x01
      a0:	88 85       	ldd	r24, Y+8	; 0x08
      a2:	88 2f       	mov	r24, r24
      a4:	90 e0       	ldi	r25, 0x00	; 0
      a6:	22 27       	eor	r18, r18
      a8:	33 27       	eor	r19, r19
      aa:	28 1b       	sub	r18, r24
      ac:	39 0b       	sbc	r19, r25
      ae:	89 81       	ldd	r24, Y+1	; 0x01
      b0:	9a 81       	ldd	r25, Y+2	; 0x02
      b2:	82 17       	cp	r24, r18
      b4:	93 07       	cpc	r25, r19
      b6:	14 f4       	brge	.+4      	; 0xbc <TempController+0x50>
      b8:	80 e0       	ldi	r24, 0x00	; 0
      ba:	6f c0       	rjmp	.+222    	; 0x19a <TempController+0x12e>
      bc:	88 85       	ldd	r24, Y+8	; 0x08
      be:	28 2f       	mov	r18, r24
      c0:	30 e0       	ldi	r19, 0x00	; 0
      c2:	89 81       	ldd	r24, Y+1	; 0x01
      c4:	9a 81       	ldd	r25, Y+2	; 0x02
      c6:	82 17       	cp	r24, r18
      c8:	93 07       	cpc	r25, r19
      ca:	74 f0       	brlt	.+28     	; 0xe8 <TempController+0x7c>
      cc:	88 85       	ldd	r24, Y+8	; 0x08
      ce:	88 2f       	mov	r24, r24
      d0:	90 e0       	ldi	r25, 0x00	; 0
      d2:	24 e1       	ldi	r18, 0x14	; 20
      d4:	30 e0       	ldi	r19, 0x00	; 0
      d6:	28 1b       	sub	r18, r24
      d8:	39 0b       	sbc	r19, r25
      da:	89 81       	ldd	r24, Y+1	; 0x01
      dc:	9a 81       	ldd	r25, Y+2	; 0x02
      de:	82 17       	cp	r24, r18
      e0:	93 07       	cpc	r25, r19
      e2:	14 f4       	brge	.+4      	; 0xe8 <TempController+0x7c>
      e4:	81 e0       	ldi	r24, 0x01	; 1
      e6:	59 c0       	rjmp	.+178    	; 0x19a <TempController+0x12e>
      e8:	88 85       	ldd	r24, Y+8	; 0x08
      ea:	88 2f       	mov	r24, r24
      ec:	90 e0       	ldi	r25, 0x00	; 0
      ee:	9c 01       	movw	r18, r24
      f0:	2c 5e       	subi	r18, 0xEC	; 236
      f2:	3f 4f       	sbci	r19, 0xFF	; 255
      f4:	89 81       	ldd	r24, Y+1	; 0x01
      f6:	9a 81       	ldd	r25, Y+2	; 0x02
      f8:	82 17       	cp	r24, r18
      fa:	93 07       	cpc	r25, r19
      fc:	74 f0       	brlt	.+28     	; 0x11a <TempController+0xae>
      fe:	88 85       	ldd	r24, Y+8	; 0x08
     100:	88 2f       	mov	r24, r24
     102:	90 e0       	ldi	r25, 0x00	; 0
     104:	28 e2       	ldi	r18, 0x28	; 40
     106:	30 e0       	ldi	r19, 0x00	; 0
     108:	28 1b       	sub	r18, r24
     10a:	39 0b       	sbc	r19, r25
     10c:	89 81       	ldd	r24, Y+1	; 0x01
     10e:	9a 81       	ldd	r25, Y+2	; 0x02
     110:	82 17       	cp	r24, r18
     112:	93 07       	cpc	r25, r19
     114:	14 f4       	brge	.+4      	; 0x11a <TempController+0xae>
     116:	82 e0       	ldi	r24, 0x02	; 2
     118:	40 c0       	rjmp	.+128    	; 0x19a <TempController+0x12e>
     11a:	88 85       	ldd	r24, Y+8	; 0x08
     11c:	88 2f       	mov	r24, r24
     11e:	90 e0       	ldi	r25, 0x00	; 0
     120:	9c 01       	movw	r18, r24
     122:	28 5d       	subi	r18, 0xD8	; 216
     124:	3f 4f       	sbci	r19, 0xFF	; 255
     126:	89 81       	ldd	r24, Y+1	; 0x01
     128:	9a 81       	ldd	r25, Y+2	; 0x02
     12a:	82 17       	cp	r24, r18
     12c:	93 07       	cpc	r25, r19
     12e:	74 f0       	brlt	.+28     	; 0x14c <TempController+0xe0>
     130:	88 85       	ldd	r24, Y+8	; 0x08
     132:	88 2f       	mov	r24, r24
     134:	90 e0       	ldi	r25, 0x00	; 0
     136:	2c e3       	ldi	r18, 0x3C	; 60
     138:	30 e0       	ldi	r19, 0x00	; 0
     13a:	28 1b       	sub	r18, r24
     13c:	39 0b       	sbc	r19, r25
     13e:	89 81       	ldd	r24, Y+1	; 0x01
     140:	9a 81       	ldd	r25, Y+2	; 0x02
     142:	82 17       	cp	r24, r18
     144:	93 07       	cpc	r25, r19
     146:	14 f4       	brge	.+4      	; 0x14c <TempController+0xe0>
     148:	83 e0       	ldi	r24, 0x03	; 3
     14a:	27 c0       	rjmp	.+78     	; 0x19a <TempController+0x12e>
     14c:	88 85       	ldd	r24, Y+8	; 0x08
     14e:	88 2f       	mov	r24, r24
     150:	90 e0       	ldi	r25, 0x00	; 0
     152:	9c 01       	movw	r18, r24
     154:	24 5c       	subi	r18, 0xC4	; 196
     156:	3f 4f       	sbci	r19, 0xFF	; 255
     158:	89 81       	ldd	r24, Y+1	; 0x01
     15a:	9a 81       	ldd	r25, Y+2	; 0x02
     15c:	82 17       	cp	r24, r18
     15e:	93 07       	cpc	r25, r19
     160:	74 f0       	brlt	.+28     	; 0x17e <TempController+0x112>
     162:	88 85       	ldd	r24, Y+8	; 0x08
     164:	88 2f       	mov	r24, r24
     166:	90 e0       	ldi	r25, 0x00	; 0
     168:	20 e5       	ldi	r18, 0x50	; 80
     16a:	30 e0       	ldi	r19, 0x00	; 0
     16c:	28 1b       	sub	r18, r24
     16e:	39 0b       	sbc	r19, r25
     170:	89 81       	ldd	r24, Y+1	; 0x01
     172:	9a 81       	ldd	r25, Y+2	; 0x02
     174:	82 17       	cp	r24, r18
     176:	93 07       	cpc	r25, r19
     178:	14 f4       	brge	.+4      	; 0x17e <TempController+0x112>
     17a:	84 e0       	ldi	r24, 0x04	; 4
     17c:	0e c0       	rjmp	.+28     	; 0x19a <TempController+0x12e>
     17e:	88 85       	ldd	r24, Y+8	; 0x08
     180:	88 2f       	mov	r24, r24
     182:	90 e0       	ldi	r25, 0x00	; 0
     184:	9c 01       	movw	r18, r24
     186:	20 5b       	subi	r18, 0xB0	; 176
     188:	3f 4f       	sbci	r19, 0xFF	; 255
     18a:	89 81       	ldd	r24, Y+1	; 0x01
     18c:	9a 81       	ldd	r25, Y+2	; 0x02
     18e:	82 17       	cp	r24, r18
     190:	93 07       	cpc	r25, r19
     192:	14 f0       	brlt	.+4      	; 0x198 <TempController+0x12c>
     194:	85 e0       	ldi	r24, 0x05	; 5
     196:	01 c0       	rjmp	.+2      	; 0x19a <TempController+0x12e>
     198:	8f 81       	ldd	r24, Y+7	; 0x07
     19a:	28 96       	adiw	r28, 0x08	; 8
     19c:	0f b6       	in	r0, 0x3f	; 63
     19e:	f8 94       	cli
     1a0:	de bf       	out	0x3e, r29	; 62
     1a2:	0f be       	out	0x3f, r0	; 63
     1a4:	cd bf       	out	0x3d, r28	; 61
     1a6:	df 91       	pop	r29
     1a8:	cf 91       	pop	r28
     1aa:	08 95       	ret

000001ac <Display_HardwareInit>:
     1ac:	cf 93       	push	r28
     1ae:	df 93       	push	r29
     1b0:	cd b7       	in	r28, 0x3d	; 61
     1b2:	de b7       	in	r29, 0x3e	; 62
     1b4:	d4 d0       	rcall	.+424    	; 0x35e <Display_DATA_Output>
     1b6:	6d d0       	rcall	.+218    	; 0x292 <Display_RS_Output>
     1b8:	9f d0       	rcall	.+318    	; 0x2f8 <Display_EN_Output>
     1ba:	00 00       	nop
     1bc:	df 91       	pop	r29
     1be:	cf 91       	pop	r28
     1c0:	08 95       	ret

000001c2 <Display_delay>:
     1c2:	cf 93       	push	r28
     1c4:	df 93       	push	r29
     1c6:	cd b7       	in	r28, 0x3d	; 61
     1c8:	de b7       	in	r29, 0x3e	; 62
     1ca:	2c 97       	sbiw	r28, 0x0c	; 12
     1cc:	0f b6       	in	r0, 0x3f	; 63
     1ce:	f8 94       	cli
     1d0:	de bf       	out	0x3e, r29	; 62
     1d2:	0f be       	out	0x3f, r0	; 63
     1d4:	cd bf       	out	0x3d, r28	; 61
     1d6:	69 87       	std	Y+9, r22	; 0x09
     1d8:	7a 87       	std	Y+10, r23	; 0x0a
     1da:	8b 87       	std	Y+11, r24	; 0x0b
     1dc:	9c 87       	std	Y+12, r25	; 0x0c
     1de:	89 85       	ldd	r24, Y+9	; 0x09
     1e0:	9a 85       	ldd	r25, Y+10	; 0x0a
     1e2:	ab 85       	ldd	r26, Y+11	; 0x0b
     1e4:	bc 85       	ldd	r27, Y+12	; 0x0c
     1e6:	8d 83       	std	Y+5, r24	; 0x05
     1e8:	9e 83       	std	Y+6, r25	; 0x06
     1ea:	af 83       	std	Y+7, r26	; 0x07
     1ec:	b8 87       	std	Y+8, r27	; 0x08
     1ee:	19 82       	std	Y+1, r1	; 0x01
     1f0:	1a 82       	std	Y+2, r1	; 0x02
     1f2:	1b 82       	std	Y+3, r1	; 0x03
     1f4:	1c 82       	std	Y+4, r1	; 0x04
     1f6:	0b c0       	rjmp	.+22     	; 0x20e <__EEPROM_REGION_LENGTH__+0xe>
     1f8:	89 81       	ldd	r24, Y+1	; 0x01
     1fa:	9a 81       	ldd	r25, Y+2	; 0x02
     1fc:	ab 81       	ldd	r26, Y+3	; 0x03
     1fe:	bc 81       	ldd	r27, Y+4	; 0x04
     200:	01 96       	adiw	r24, 0x01	; 1
     202:	a1 1d       	adc	r26, r1
     204:	b1 1d       	adc	r27, r1
     206:	89 83       	std	Y+1, r24	; 0x01
     208:	9a 83       	std	Y+2, r25	; 0x02
     20a:	ab 83       	std	Y+3, r26	; 0x03
     20c:	bc 83       	std	Y+4, r27	; 0x04
     20e:	29 81       	ldd	r18, Y+1	; 0x01
     210:	3a 81       	ldd	r19, Y+2	; 0x02
     212:	4b 81       	ldd	r20, Y+3	; 0x03
     214:	5c 81       	ldd	r21, Y+4	; 0x04
     216:	8d 81       	ldd	r24, Y+5	; 0x05
     218:	9e 81       	ldd	r25, Y+6	; 0x06
     21a:	af 81       	ldd	r26, Y+7	; 0x07
     21c:	b8 85       	ldd	r27, Y+8	; 0x08
     21e:	28 17       	cp	r18, r24
     220:	39 07       	cpc	r19, r25
     222:	4a 07       	cpc	r20, r26
     224:	5b 07       	cpc	r21, r27
     226:	40 f3       	brcs	.-48     	; 0x1f8 <Display_delay+0x36>
     228:	00 00       	nop
     22a:	2c 96       	adiw	r28, 0x0c	; 12
     22c:	0f b6       	in	r0, 0x3f	; 63
     22e:	f8 94       	cli
     230:	de bf       	out	0x3e, r29	; 62
     232:	0f be       	out	0x3f, r0	; 63
     234:	cd bf       	out	0x3d, r28	; 61
     236:	df 91       	pop	r29
     238:	cf 91       	pop	r28
     23a:	08 95       	ret

0000023c <Display_Aus>:
     23c:	cf 93       	push	r28
     23e:	df 93       	push	r29
     240:	cd b7       	in	r28, 0x3d	; 61
     242:	de b7       	in	r29, 0x3e	; 62
     244:	8a e2       	ldi	r24, 0x2A	; 42
     246:	90 e0       	ldi	r25, 0x00	; 0
     248:	2a e2       	ldi	r18, 0x2A	; 42
     24a:	30 e0       	ldi	r19, 0x00	; 0
     24c:	f9 01       	movw	r30, r18
     24e:	20 81       	ld	r18, Z
     250:	20 68       	ori	r18, 0x80	; 128
     252:	fc 01       	movw	r30, r24
     254:	20 83       	st	Z, r18
     256:	8b e2       	ldi	r24, 0x2B	; 43
     258:	90 e0       	ldi	r25, 0x00	; 0
     25a:	2b e2       	ldi	r18, 0x2B	; 43
     25c:	30 e0       	ldi	r19, 0x00	; 0
     25e:	f9 01       	movw	r30, r18
     260:	20 81       	ld	r18, Z
     262:	2f 77       	andi	r18, 0x7F	; 127
     264:	fc 01       	movw	r30, r24
     266:	20 83       	st	Z, r18
     268:	00 00       	nop
     26a:	df 91       	pop	r29
     26c:	cf 91       	pop	r28
     26e:	08 95       	ret

00000270 <Display_An>:
     270:	cf 93       	push	r28
     272:	df 93       	push	r29
     274:	cd b7       	in	r28, 0x3d	; 61
     276:	de b7       	in	r29, 0x3e	; 62
     278:	8b e2       	ldi	r24, 0x2B	; 43
     27a:	90 e0       	ldi	r25, 0x00	; 0
     27c:	2b e2       	ldi	r18, 0x2B	; 43
     27e:	30 e0       	ldi	r19, 0x00	; 0
     280:	f9 01       	movw	r30, r18
     282:	20 81       	ld	r18, Z
     284:	20 68       	ori	r18, 0x80	; 128
     286:	fc 01       	movw	r30, r24
     288:	20 83       	st	Z, r18
     28a:	00 00       	nop
     28c:	df 91       	pop	r29
     28e:	cf 91       	pop	r28
     290:	08 95       	ret

00000292 <Display_RS_Output>:
     292:	cf 93       	push	r28
     294:	df 93       	push	r29
     296:	cd b7       	in	r28, 0x3d	; 61
     298:	de b7       	in	r29, 0x3e	; 62
     29a:	84 e2       	ldi	r24, 0x24	; 36
     29c:	90 e0       	ldi	r25, 0x00	; 0
     29e:	24 e2       	ldi	r18, 0x24	; 36
     2a0:	30 e0       	ldi	r19, 0x00	; 0
     2a2:	f9 01       	movw	r30, r18
     2a4:	20 81       	ld	r18, Z
     2a6:	21 60       	ori	r18, 0x01	; 1
     2a8:	fc 01       	movw	r30, r24
     2aa:	20 83       	st	Z, r18
     2ac:	00 00       	nop
     2ae:	df 91       	pop	r29
     2b0:	cf 91       	pop	r28
     2b2:	08 95       	ret

000002b4 <Display_RS_High>:
     2b4:	cf 93       	push	r28
     2b6:	df 93       	push	r29
     2b8:	cd b7       	in	r28, 0x3d	; 61
     2ba:	de b7       	in	r29, 0x3e	; 62
     2bc:	85 e2       	ldi	r24, 0x25	; 37
     2be:	90 e0       	ldi	r25, 0x00	; 0
     2c0:	25 e2       	ldi	r18, 0x25	; 37
     2c2:	30 e0       	ldi	r19, 0x00	; 0
     2c4:	f9 01       	movw	r30, r18
     2c6:	20 81       	ld	r18, Z
     2c8:	21 60       	ori	r18, 0x01	; 1
     2ca:	fc 01       	movw	r30, r24
     2cc:	20 83       	st	Z, r18
     2ce:	00 00       	nop
     2d0:	df 91       	pop	r29
     2d2:	cf 91       	pop	r28
     2d4:	08 95       	ret

000002d6 <Display_RS_Low>:
     2d6:	cf 93       	push	r28
     2d8:	df 93       	push	r29
     2da:	cd b7       	in	r28, 0x3d	; 61
     2dc:	de b7       	in	r29, 0x3e	; 62
     2de:	85 e2       	ldi	r24, 0x25	; 37
     2e0:	90 e0       	ldi	r25, 0x00	; 0
     2e2:	25 e2       	ldi	r18, 0x25	; 37
     2e4:	30 e0       	ldi	r19, 0x00	; 0
     2e6:	f9 01       	movw	r30, r18
     2e8:	20 81       	ld	r18, Z
     2ea:	2e 7f       	andi	r18, 0xFE	; 254
     2ec:	fc 01       	movw	r30, r24
     2ee:	20 83       	st	Z, r18
     2f0:	00 00       	nop
     2f2:	df 91       	pop	r29
     2f4:	cf 91       	pop	r28
     2f6:	08 95       	ret

000002f8 <Display_EN_Output>:
     2f8:	cf 93       	push	r28
     2fa:	df 93       	push	r29
     2fc:	cd b7       	in	r28, 0x3d	; 61
     2fe:	de b7       	in	r29, 0x3e	; 62
     300:	84 e2       	ldi	r24, 0x24	; 36
     302:	90 e0       	ldi	r25, 0x00	; 0
     304:	24 e2       	ldi	r18, 0x24	; 36
     306:	30 e0       	ldi	r19, 0x00	; 0
     308:	f9 01       	movw	r30, r18
     30a:	20 81       	ld	r18, Z
     30c:	22 60       	ori	r18, 0x02	; 2
     30e:	fc 01       	movw	r30, r24
     310:	20 83       	st	Z, r18
     312:	00 00       	nop
     314:	df 91       	pop	r29
     316:	cf 91       	pop	r28
     318:	08 95       	ret

0000031a <Display_EN_High>:
     31a:	cf 93       	push	r28
     31c:	df 93       	push	r29
     31e:	cd b7       	in	r28, 0x3d	; 61
     320:	de b7       	in	r29, 0x3e	; 62
     322:	85 e2       	ldi	r24, 0x25	; 37
     324:	90 e0       	ldi	r25, 0x00	; 0
     326:	25 e2       	ldi	r18, 0x25	; 37
     328:	30 e0       	ldi	r19, 0x00	; 0
     32a:	f9 01       	movw	r30, r18
     32c:	20 81       	ld	r18, Z
     32e:	22 60       	ori	r18, 0x02	; 2
     330:	fc 01       	movw	r30, r24
     332:	20 83       	st	Z, r18
     334:	00 00       	nop
     336:	df 91       	pop	r29
     338:	cf 91       	pop	r28
     33a:	08 95       	ret

0000033c <Display_EN_Low>:
     33c:	cf 93       	push	r28
     33e:	df 93       	push	r29
     340:	cd b7       	in	r28, 0x3d	; 61
     342:	de b7       	in	r29, 0x3e	; 62
     344:	85 e2       	ldi	r24, 0x25	; 37
     346:	90 e0       	ldi	r25, 0x00	; 0
     348:	25 e2       	ldi	r18, 0x25	; 37
     34a:	30 e0       	ldi	r19, 0x00	; 0
     34c:	f9 01       	movw	r30, r18
     34e:	20 81       	ld	r18, Z
     350:	2d 7f       	andi	r18, 0xFD	; 253
     352:	fc 01       	movw	r30, r24
     354:	20 83       	st	Z, r18
     356:	00 00       	nop
     358:	df 91       	pop	r29
     35a:	cf 91       	pop	r28
     35c:	08 95       	ret

0000035e <Display_DATA_Output>:
     35e:	cf 93       	push	r28
     360:	df 93       	push	r29
     362:	cd b7       	in	r28, 0x3d	; 61
     364:	de b7       	in	r29, 0x3e	; 62
     366:	87 e2       	ldi	r24, 0x27	; 39
     368:	90 e0       	ldi	r25, 0x00	; 0
     36a:	27 e2       	ldi	r18, 0x27	; 39
     36c:	30 e0       	ldi	r19, 0x00	; 0
     36e:	f9 01       	movw	r30, r18
     370:	20 81       	ld	r18, Z
     372:	2f 60       	ori	r18, 0x0F	; 15
     374:	fc 01       	movw	r30, r24
     376:	20 83       	st	Z, r18
     378:	00 00       	nop
     37a:	df 91       	pop	r29
     37c:	cf 91       	pop	r28
     37e:	08 95       	ret

00000380 <Display_DATA_BitHigh>:
     380:	cf 93       	push	r28
     382:	df 93       	push	r29
     384:	1f 92       	push	r1
     386:	cd b7       	in	r28, 0x3d	; 61
     388:	de b7       	in	r29, 0x3e	; 62
     38a:	89 83       	std	Y+1, r24	; 0x01
     38c:	88 e2       	ldi	r24, 0x28	; 40
     38e:	90 e0       	ldi	r25, 0x00	; 0
     390:	28 e2       	ldi	r18, 0x28	; 40
     392:	30 e0       	ldi	r19, 0x00	; 0
     394:	f9 01       	movw	r30, r18
     396:	20 81       	ld	r18, Z
     398:	62 2f       	mov	r22, r18
     39a:	29 81       	ldd	r18, Y+1	; 0x01
     39c:	42 2f       	mov	r20, r18
     39e:	50 e0       	ldi	r21, 0x00	; 0
     3a0:	21 e0       	ldi	r18, 0x01	; 1
     3a2:	30 e0       	ldi	r19, 0x00	; 0
     3a4:	02 c0       	rjmp	.+4      	; 0x3aa <Display_DATA_BitHigh+0x2a>
     3a6:	22 0f       	add	r18, r18
     3a8:	33 1f       	adc	r19, r19
     3aa:	4a 95       	dec	r20
     3ac:	e2 f7       	brpl	.-8      	; 0x3a6 <Display_DATA_BitHigh+0x26>
     3ae:	26 2b       	or	r18, r22
     3b0:	fc 01       	movw	r30, r24
     3b2:	20 83       	st	Z, r18
     3b4:	00 00       	nop
     3b6:	0f 90       	pop	r0
     3b8:	df 91       	pop	r29
     3ba:	cf 91       	pop	r28
     3bc:	08 95       	ret

000003be <Display_DATA_BitLow>:
     3be:	cf 93       	push	r28
     3c0:	df 93       	push	r29
     3c2:	1f 92       	push	r1
     3c4:	cd b7       	in	r28, 0x3d	; 61
     3c6:	de b7       	in	r29, 0x3e	; 62
     3c8:	89 83       	std	Y+1, r24	; 0x01
     3ca:	88 e2       	ldi	r24, 0x28	; 40
     3cc:	90 e0       	ldi	r25, 0x00	; 0
     3ce:	28 e2       	ldi	r18, 0x28	; 40
     3d0:	30 e0       	ldi	r19, 0x00	; 0
     3d2:	f9 01       	movw	r30, r18
     3d4:	20 81       	ld	r18, Z
     3d6:	62 2f       	mov	r22, r18
     3d8:	29 81       	ldd	r18, Y+1	; 0x01
     3da:	42 2f       	mov	r20, r18
     3dc:	50 e0       	ldi	r21, 0x00	; 0
     3de:	21 e0       	ldi	r18, 0x01	; 1
     3e0:	30 e0       	ldi	r19, 0x00	; 0
     3e2:	02 c0       	rjmp	.+4      	; 0x3e8 <Display_DATA_BitLow+0x2a>
     3e4:	22 0f       	add	r18, r18
     3e6:	33 1f       	adc	r19, r19
     3e8:	4a 95       	dec	r20
     3ea:	e2 f7       	brpl	.-8      	; 0x3e4 <Display_DATA_BitLow+0x26>
     3ec:	20 95       	com	r18
     3ee:	26 23       	and	r18, r22
     3f0:	fc 01       	movw	r30, r24
     3f2:	20 83       	st	Z, r18
     3f4:	00 00       	nop
     3f6:	0f 90       	pop	r0
     3f8:	df 91       	pop	r29
     3fa:	cf 91       	pop	r28
     3fc:	08 95       	ret

000003fe <Display_Clear>:
     3fe:	cf 93       	push	r28
     400:	df 93       	push	r29
     402:	cd b7       	in	r28, 0x3d	; 61
     404:	de b7       	in	r29, 0x3e	; 62
     406:	d2 de       	rcall	.-604    	; 0x1ac <Display_HardwareInit>
     408:	66 df       	rcall	.-308    	; 0x2d6 <Display_RS_Low>
     40a:	81 e0       	ldi	r24, 0x01	; 1
     40c:	99 d0       	rcall	.+306    	; 0x540 <Display_Transfer4BitData>
     40e:	52 df       	rcall	.-348    	; 0x2b4 <Display_RS_High>
     410:	60 ea       	ldi	r22, 0xA0	; 160
     412:	7f e0       	ldi	r23, 0x0F	; 15
     414:	80 e0       	ldi	r24, 0x00	; 0
     416:	90 e0       	ldi	r25, 0x00	; 0
     418:	d4 de       	rcall	.-600    	; 0x1c2 <Display_delay>
     41a:	00 00       	nop
     41c:	df 91       	pop	r29
     41e:	cf 91       	pop	r28
     420:	08 95       	ret

00000422 <Display_ModeEntry>:
     422:	cf 93       	push	r28
     424:	df 93       	push	r29
     426:	1f 92       	push	r1
     428:	cd b7       	in	r28, 0x3d	; 61
     42a:	de b7       	in	r29, 0x3e	; 62
     42c:	89 83       	std	Y+1, r24	; 0x01
     42e:	be de       	rcall	.-644    	; 0x1ac <Display_HardwareInit>
     430:	52 df       	rcall	.-348    	; 0x2d6 <Display_RS_Low>
     432:	89 81       	ldd	r24, Y+1	; 0x01
     434:	85 d0       	rcall	.+266    	; 0x540 <Display_Transfer4BitData>
     436:	3e df       	rcall	.-388    	; 0x2b4 <Display_RS_High>
     438:	62 e3       	ldi	r22, 0x32	; 50
     43a:	70 e0       	ldi	r23, 0x00	; 0
     43c:	80 e0       	ldi	r24, 0x00	; 0
     43e:	90 e0       	ldi	r25, 0x00	; 0
     440:	c0 de       	rcall	.-640    	; 0x1c2 <Display_delay>
     442:	00 00       	nop
     444:	0f 90       	pop	r0
     446:	df 91       	pop	r29
     448:	cf 91       	pop	r28
     44a:	08 95       	ret

0000044c <Display_Control>:
     44c:	cf 93       	push	r28
     44e:	df 93       	push	r29
     450:	1f 92       	push	r1
     452:	cd b7       	in	r28, 0x3d	; 61
     454:	de b7       	in	r29, 0x3e	; 62
     456:	89 83       	std	Y+1, r24	; 0x01
     458:	a9 de       	rcall	.-686    	; 0x1ac <Display_HardwareInit>
     45a:	3d df       	rcall	.-390    	; 0x2d6 <Display_RS_Low>
     45c:	89 81       	ldd	r24, Y+1	; 0x01
     45e:	70 d0       	rcall	.+224    	; 0x540 <Display_Transfer4BitData>
     460:	29 df       	rcall	.-430    	; 0x2b4 <Display_RS_High>
     462:	62 e3       	ldi	r22, 0x32	; 50
     464:	70 e0       	ldi	r23, 0x00	; 0
     466:	80 e0       	ldi	r24, 0x00	; 0
     468:	90 e0       	ldi	r25, 0x00	; 0
     46a:	ab de       	rcall	.-682    	; 0x1c2 <Display_delay>
     46c:	00 00       	nop
     46e:	0f 90       	pop	r0
     470:	df 91       	pop	r29
     472:	cf 91       	pop	r28
     474:	08 95       	ret

00000476 <Display_SetMPUInterface>:
     476:	cf 93       	push	r28
     478:	df 93       	push	r29
     47a:	00 d0       	rcall	.+0      	; 0x47c <Display_SetMPUInterface+0x6>
     47c:	1f 92       	push	r1
     47e:	cd b7       	in	r28, 0x3d	; 61
     480:	de b7       	in	r29, 0x3e	; 62
     482:	8b 83       	std	Y+3, r24	; 0x03
     484:	80 e8       	ldi	r24, 0x80	; 128
     486:	89 83       	std	Y+1, r24	; 0x01
     488:	91 de       	rcall	.-734    	; 0x1ac <Display_HardwareInit>
     48a:	25 df       	rcall	.-438    	; 0x2d6 <Display_RS_Low>
     48c:	46 df       	rcall	.-372    	; 0x31a <Display_EN_High>
     48e:	1a 82       	std	Y+2, r1	; 0x02
     490:	1c c0       	rjmp	.+56     	; 0x4ca <Display_SetMPUInterface+0x54>
     492:	9b 81       	ldd	r25, Y+3	; 0x03
     494:	89 81       	ldd	r24, Y+1	; 0x01
     496:	89 23       	and	r24, r25
     498:	88 23       	and	r24, r24
     49a:	49 f0       	breq	.+18     	; 0x4ae <Display_SetMPUInterface+0x38>
     49c:	8a 81       	ldd	r24, Y+2	; 0x02
     49e:	88 2f       	mov	r24, r24
     4a0:	90 e0       	ldi	r25, 0x00	; 0
     4a2:	80 50       	subi	r24, 0x00	; 0
     4a4:	9f 4f       	sbci	r25, 0xFF	; 255
     4a6:	fc 01       	movw	r30, r24
     4a8:	80 81       	ld	r24, Z
     4aa:	6a df       	rcall	.-300    	; 0x380 <Display_DATA_BitHigh>
     4ac:	08 c0       	rjmp	.+16     	; 0x4be <Display_SetMPUInterface+0x48>
     4ae:	8a 81       	ldd	r24, Y+2	; 0x02
     4b0:	88 2f       	mov	r24, r24
     4b2:	90 e0       	ldi	r25, 0x00	; 0
     4b4:	80 50       	subi	r24, 0x00	; 0
     4b6:	9f 4f       	sbci	r25, 0xFF	; 255
     4b8:	fc 01       	movw	r30, r24
     4ba:	80 81       	ld	r24, Z
     4bc:	80 df       	rcall	.-256    	; 0x3be <Display_DATA_BitLow>
     4be:	89 81       	ldd	r24, Y+1	; 0x01
     4c0:	86 95       	lsr	r24
     4c2:	89 83       	std	Y+1, r24	; 0x01
     4c4:	8a 81       	ldd	r24, Y+2	; 0x02
     4c6:	8f 5f       	subi	r24, 0xFF	; 255
     4c8:	8a 83       	std	Y+2, r24	; 0x02
     4ca:	8a 81       	ldd	r24, Y+2	; 0x02
     4cc:	84 30       	cpi	r24, 0x04	; 4
     4ce:	08 f3       	brcs	.-62     	; 0x492 <Display_SetMPUInterface+0x1c>
     4d0:	35 df       	rcall	.-406    	; 0x33c <Display_EN_Low>
     4d2:	23 df       	rcall	.-442    	; 0x31a <Display_EN_High>
     4d4:	8b 81       	ldd	r24, Y+3	; 0x03
     4d6:	34 d0       	rcall	.+104    	; 0x540 <Display_Transfer4BitData>
     4d8:	ed de       	rcall	.-550    	; 0x2b4 <Display_RS_High>
     4da:	62 e3       	ldi	r22, 0x32	; 50
     4dc:	70 e0       	ldi	r23, 0x00	; 0
     4de:	80 e0       	ldi	r24, 0x00	; 0
     4e0:	90 e0       	ldi	r25, 0x00	; 0
     4e2:	6f de       	rcall	.-802    	; 0x1c2 <Display_delay>
     4e4:	00 00       	nop
     4e6:	0f 90       	pop	r0
     4e8:	0f 90       	pop	r0
     4ea:	0f 90       	pop	r0
     4ec:	df 91       	pop	r29
     4ee:	cf 91       	pop	r28
     4f0:	08 95       	ret

000004f2 <Display_SetCursor>:
     4f2:	cf 93       	push	r28
     4f4:	df 93       	push	r29
     4f6:	00 d0       	rcall	.+0      	; 0x4f8 <Display_SetCursor+0x6>
     4f8:	1f 92       	push	r1
     4fa:	cd b7       	in	r28, 0x3d	; 61
     4fc:	de b7       	in	r29, 0x3e	; 62
     4fe:	8a 83       	std	Y+2, r24	; 0x02
     500:	6b 83       	std	Y+3, r22	; 0x03
     502:	80 e8       	ldi	r24, 0x80	; 128
     504:	89 83       	std	Y+1, r24	; 0x01
     506:	8a 81       	ldd	r24, Y+2	; 0x02
     508:	88 2f       	mov	r24, r24
     50a:	90 e0       	ldi	r25, 0x00	; 0
     50c:	88 5f       	subi	r24, 0xF8	; 248
     50e:	9e 4f       	sbci	r25, 0xFE	; 254
     510:	fc 01       	movw	r30, r24
     512:	90 81       	ld	r25, Z
     514:	8b 81       	ldd	r24, Y+3	; 0x03
     516:	89 0f       	add	r24, r25
     518:	99 81       	ldd	r25, Y+1	; 0x01
     51a:	89 0f       	add	r24, r25
     51c:	89 83       	std	Y+1, r24	; 0x01
     51e:	46 de       	rcall	.-884    	; 0x1ac <Display_HardwareInit>
     520:	da de       	rcall	.-588    	; 0x2d6 <Display_RS_Low>
     522:	89 81       	ldd	r24, Y+1	; 0x01
     524:	0d d0       	rcall	.+26     	; 0x540 <Display_Transfer4BitData>
     526:	c6 de       	rcall	.-628    	; 0x2b4 <Display_RS_High>
     528:	62 e3       	ldi	r22, 0x32	; 50
     52a:	70 e0       	ldi	r23, 0x00	; 0
     52c:	80 e0       	ldi	r24, 0x00	; 0
     52e:	90 e0       	ldi	r25, 0x00	; 0
     530:	48 de       	rcall	.-880    	; 0x1c2 <Display_delay>
     532:	00 00       	nop
     534:	0f 90       	pop	r0
     536:	0f 90       	pop	r0
     538:	0f 90       	pop	r0
     53a:	df 91       	pop	r29
     53c:	cf 91       	pop	r28
     53e:	08 95       	ret

00000540 <Display_Transfer4BitData>:
     540:	cf 93       	push	r28
     542:	df 93       	push	r29
     544:	00 d0       	rcall	.+0      	; 0x546 <Display_Transfer4BitData+0x6>
     546:	1f 92       	push	r1
     548:	cd b7       	in	r28, 0x3d	; 61
     54a:	de b7       	in	r29, 0x3e	; 62
     54c:	8b 83       	std	Y+3, r24	; 0x03
     54e:	80 e8       	ldi	r24, 0x80	; 128
     550:	89 83       	std	Y+1, r24	; 0x01
     552:	e3 de       	rcall	.-570    	; 0x31a <Display_EN_High>
     554:	1a 82       	std	Y+2, r1	; 0x02
     556:	21 c0       	rjmp	.+66     	; 0x59a <Display_Transfer4BitData+0x5a>
     558:	9b 81       	ldd	r25, Y+3	; 0x03
     55a:	89 81       	ldd	r24, Y+1	; 0x01
     55c:	89 23       	and	r24, r25
     55e:	88 23       	and	r24, r24
     560:	49 f0       	breq	.+18     	; 0x574 <Display_Transfer4BitData+0x34>
     562:	8a 81       	ldd	r24, Y+2	; 0x02
     564:	88 2f       	mov	r24, r24
     566:	90 e0       	ldi	r25, 0x00	; 0
     568:	80 50       	subi	r24, 0x00	; 0
     56a:	9f 4f       	sbci	r25, 0xFF	; 255
     56c:	fc 01       	movw	r30, r24
     56e:	80 81       	ld	r24, Z
     570:	07 df       	rcall	.-498    	; 0x380 <Display_DATA_BitHigh>
     572:	08 c0       	rjmp	.+16     	; 0x584 <Display_Transfer4BitData+0x44>
     574:	8a 81       	ldd	r24, Y+2	; 0x02
     576:	88 2f       	mov	r24, r24
     578:	90 e0       	ldi	r25, 0x00	; 0
     57a:	80 50       	subi	r24, 0x00	; 0
     57c:	9f 4f       	sbci	r25, 0xFF	; 255
     57e:	fc 01       	movw	r30, r24
     580:	80 81       	ld	r24, Z
     582:	1d df       	rcall	.-454    	; 0x3be <Display_DATA_BitLow>
     584:	89 81       	ldd	r24, Y+1	; 0x01
     586:	86 95       	lsr	r24
     588:	89 83       	std	Y+1, r24	; 0x01
     58a:	8a 81       	ldd	r24, Y+2	; 0x02
     58c:	83 30       	cpi	r24, 0x03	; 3
     58e:	11 f4       	brne	.+4      	; 0x594 <Display_Transfer4BitData+0x54>
     590:	d5 de       	rcall	.-598    	; 0x33c <Display_EN_Low>
     592:	c3 de       	rcall	.-634    	; 0x31a <Display_EN_High>
     594:	8a 81       	ldd	r24, Y+2	; 0x02
     596:	8f 5f       	subi	r24, 0xFF	; 255
     598:	8a 83       	std	Y+2, r24	; 0x02
     59a:	8a 81       	ldd	r24, Y+2	; 0x02
     59c:	88 30       	cpi	r24, 0x08	; 8
     59e:	e0 f2       	brcs	.-72     	; 0x558 <Display_Transfer4BitData+0x18>
     5a0:	cd de       	rcall	.-614    	; 0x33c <Display_EN_Low>
     5a2:	00 00       	nop
     5a4:	0f 90       	pop	r0
     5a6:	0f 90       	pop	r0
     5a8:	0f 90       	pop	r0
     5aa:	df 91       	pop	r29
     5ac:	cf 91       	pop	r28
     5ae:	08 95       	ret

000005b0 <Display_Init>:
     5b0:	cf 93       	push	r28
     5b2:	df 93       	push	r29
     5b4:	cd b7       	in	r28, 0x3d	; 61
     5b6:	de b7       	in	r29, 0x3e	; 62
     5b8:	41 de       	rcall	.-894    	; 0x23c <Display_Aus>
     5ba:	60 e5       	ldi	r22, 0x50	; 80
     5bc:	73 ec       	ldi	r23, 0xC3	; 195
     5be:	80 e0       	ldi	r24, 0x00	; 0
     5c0:	90 e0       	ldi	r25, 0x00	; 0
     5c2:	ff dd       	rcall	.-1026   	; 0x1c2 <Display_delay>
     5c4:	55 de       	rcall	.-854    	; 0x270 <Display_An>
     5c6:	60 e3       	ldi	r22, 0x30	; 48
     5c8:	75 e7       	ldi	r23, 0x75	; 117
     5ca:	80 e0       	ldi	r24, 0x00	; 0
     5cc:	90 e0       	ldi	r25, 0x00	; 0
     5ce:	f9 dd       	rcall	.-1038   	; 0x1c2 <Display_delay>
     5d0:	88 e2       	ldi	r24, 0x28	; 40
     5d2:	51 df       	rcall	.-350    	; 0x476 <Display_SetMPUInterface>
     5d4:	14 df       	rcall	.-472    	; 0x3fe <Display_Clear>
     5d6:	86 e0       	ldi	r24, 0x06	; 6
     5d8:	24 df       	rcall	.-440    	; 0x422 <Display_ModeEntry>
     5da:	8e e0       	ldi	r24, 0x0E	; 14
     5dc:	37 df       	rcall	.-402    	; 0x44c <Display_Control>
     5de:	00 00       	nop
     5e0:	df 91       	pop	r29
     5e2:	cf 91       	pop	r28
     5e4:	08 95       	ret

000005e6 <Display_Write>:
     5e6:	cf 93       	push	r28
     5e8:	df 93       	push	r29
     5ea:	1f 92       	push	r1
     5ec:	cd b7       	in	r28, 0x3d	; 61
     5ee:	de b7       	in	r29, 0x3e	; 62
     5f0:	89 83       	std	Y+1, r24	; 0x01
     5f2:	dc dd       	rcall	.-1096   	; 0x1ac <Display_HardwareInit>
     5f4:	5f de       	rcall	.-834    	; 0x2b4 <Display_RS_High>
     5f6:	89 81       	ldd	r24, Y+1	; 0x01
     5f8:	a3 df       	rcall	.-186    	; 0x540 <Display_Transfer4BitData>
     5fa:	6d de       	rcall	.-806    	; 0x2d6 <Display_RS_Low>
     5fc:	62 e3       	ldi	r22, 0x32	; 50
     5fe:	70 e0       	ldi	r23, 0x00	; 0
     600:	80 e0       	ldi	r24, 0x00	; 0
     602:	90 e0       	ldi	r25, 0x00	; 0
     604:	de dd       	rcall	.-1092   	; 0x1c2 <Display_delay>
     606:	00 00       	nop
     608:	0f 90       	pop	r0
     60a:	df 91       	pop	r29
     60c:	cf 91       	pop	r28
     60e:	08 95       	ret

00000610 <Display_Print>:
     610:	cf 93       	push	r28
     612:	df 93       	push	r29
     614:	00 d0       	rcall	.+0      	; 0x616 <Display_Print+0x6>
     616:	00 d0       	rcall	.+0      	; 0x618 <Display_Print+0x8>
     618:	cd b7       	in	r28, 0x3d	; 61
     61a:	de b7       	in	r29, 0x3e	; 62
     61c:	9b 83       	std	Y+3, r25	; 0x03
     61e:	8a 83       	std	Y+2, r24	; 0x02
     620:	6c 83       	std	Y+4, r22	; 0x04
     622:	19 82       	std	Y+1, r1	; 0x01
     624:	c3 dd       	rcall	.-1146   	; 0x1ac <Display_HardwareInit>
     626:	46 de       	rcall	.-884    	; 0x2b4 <Display_RS_High>
     628:	19 82       	std	Y+1, r1	; 0x01
     62a:	0d c0       	rjmp	.+26     	; 0x646 <Display_Print+0x36>
     62c:	89 81       	ldd	r24, Y+1	; 0x01
     62e:	88 2f       	mov	r24, r24
     630:	90 e0       	ldi	r25, 0x00	; 0
     632:	2a 81       	ldd	r18, Y+2	; 0x02
     634:	3b 81       	ldd	r19, Y+3	; 0x03
     636:	82 0f       	add	r24, r18
     638:	93 1f       	adc	r25, r19
     63a:	fc 01       	movw	r30, r24
     63c:	80 81       	ld	r24, Z
     63e:	d3 df       	rcall	.-90     	; 0x5e6 <Display_Write>
     640:	89 81       	ldd	r24, Y+1	; 0x01
     642:	8f 5f       	subi	r24, 0xFF	; 255
     644:	89 83       	std	Y+1, r24	; 0x01
     646:	99 81       	ldd	r25, Y+1	; 0x01
     648:	8c 81       	ldd	r24, Y+4	; 0x04
     64a:	98 17       	cp	r25, r24
     64c:	78 f3       	brcs	.-34     	; 0x62c <Display_Print+0x1c>
     64e:	43 de       	rcall	.-890    	; 0x2d6 <Display_RS_Low>
     650:	00 00       	nop
     652:	0f 90       	pop	r0
     654:	0f 90       	pop	r0
     656:	0f 90       	pop	r0
     658:	0f 90       	pop	r0
     65a:	df 91       	pop	r29
     65c:	cf 91       	pop	r28
     65e:	08 95       	ret

00000660 <Display_Output>:
     660:	cf 93       	push	r28
     662:	df 93       	push	r29
     664:	cd b7       	in	r28, 0x3d	; 61
     666:	de b7       	in	r29, 0x3e	; 62
     668:	a6 97       	sbiw	r28, 0x26	; 38
     66a:	0f b6       	in	r0, 0x3f	; 63
     66c:	f8 94       	cli
     66e:	de bf       	out	0x3e, r29	; 62
     670:	0f be       	out	0x3f, r0	; 63
     672:	cd bf       	out	0x3d, r28	; 61
     674:	9c a3       	std	Y+36, r25	; 0x24
     676:	8b a3       	std	Y+35, r24	; 0x23
     678:	6d a3       	std	Y+37, r22	; 0x25
     67a:	4e a3       	std	Y+38, r20	; 0x26
     67c:	80 e2       	ldi	r24, 0x20	; 32
     67e:	eb e4       	ldi	r30, 0x4B	; 75
     680:	f1 e0       	ldi	r31, 0x01	; 1
     682:	de 01       	movw	r26, r28
     684:	13 96       	adiw	r26, 0x03	; 3
     686:	01 90       	ld	r0, Z+
     688:	0d 92       	st	X+, r0
     68a:	8a 95       	dec	r24
     68c:	e1 f7       	brne	.-8      	; 0x686 <Display_Output+0x26>
     68e:	19 82       	std	Y+1, r1	; 0x01
     690:	1a 82       	std	Y+2, r1	; 0x02
     692:	8e a1       	ldd	r24, Y+38	; 0x26
     694:	8f 36       	cpi	r24, 0x6F	; 111
     696:	21 f4       	brne	.+8      	; 0x6a0 <Display_Output+0x40>
     698:	8b e5       	ldi	r24, 0x5B	; 91
     69a:	8b a3       	std	Y+35, r24	; 0x23
     69c:	8d e5       	ldi	r24, 0x5D	; 93
     69e:	8a ab       	std	Y+50, r24	; 0x32
     6a0:	8b a1       	ldd	r24, Y+35	; 0x23
     6a2:	9c a1       	ldd	r25, Y+36	; 0x24
     6a4:	99 23       	and	r25, r25
     6a6:	0c f0       	brlt	.+2      	; 0x6aa <Display_Output+0x4a>
     6a8:	3f c0       	rjmp	.+126    	; 0x728 <Display_Output+0xc8>
     6aa:	8b a1       	ldd	r24, Y+35	; 0x23
     6ac:	9c a1       	ldd	r25, Y+36	; 0x24
     6ae:	91 95       	neg	r25
     6b0:	81 95       	neg	r24
     6b2:	91 09       	sbc	r25, r1
     6b4:	9c a3       	std	Y+36, r25	; 0x24
     6b6:	8b a3       	std	Y+35, r24	; 0x23
     6b8:	81 e0       	ldi	r24, 0x01	; 1
     6ba:	8a 83       	std	Y+2, r24	; 0x02
     6bc:	35 c0       	rjmp	.+106    	; 0x728 <Display_Output+0xc8>
     6be:	89 81       	ldd	r24, Y+1	; 0x01
     6c0:	81 30       	cpi	r24, 0x01	; 1
     6c2:	19 f4       	brne	.+6      	; 0x6ca <Display_Output+0x6a>
     6c4:	89 81       	ldd	r24, Y+1	; 0x01
     6c6:	8f 5f       	subi	r24, 0xFF	; 255
     6c8:	89 83       	std	Y+1, r24	; 0x01
     6ca:	8d a1       	ldd	r24, Y+37	; 0x25
     6cc:	e8 2f       	mov	r30, r24
     6ce:	f0 e0       	ldi	r31, 0x00	; 0
     6d0:	89 81       	ldd	r24, Y+1	; 0x01
     6d2:	88 2f       	mov	r24, r24
     6d4:	90 e0       	ldi	r25, 0x00	; 0
     6d6:	2d e0       	ldi	r18, 0x0D	; 13
     6d8:	30 e0       	ldi	r19, 0x00	; 0
     6da:	28 1b       	sub	r18, r24
     6dc:	39 0b       	sbc	r19, r25
     6de:	8b a1       	ldd	r24, Y+35	; 0x23
     6e0:	9c a1       	ldd	r25, Y+36	; 0x24
     6e2:	4a e0       	ldi	r20, 0x0A	; 10
     6e4:	50 e0       	ldi	r21, 0x00	; 0
     6e6:	ba 01       	movw	r22, r20
     6e8:	e4 da       	rcall	.-2616   	; 0xfffffcb2 <__eeprom_end+0xff7efcb2>
     6ea:	60 e3       	ldi	r22, 0x30	; 48
     6ec:	68 0f       	add	r22, r24
     6ee:	cf 01       	movw	r24, r30
     6f0:	82 95       	swap	r24
     6f2:	92 95       	swap	r25
     6f4:	90 7f       	andi	r25, 0xF0	; 240
     6f6:	98 27       	eor	r25, r24
     6f8:	80 7f       	andi	r24, 0xF0	; 240
     6fa:	98 27       	eor	r25, r24
     6fc:	ae 01       	movw	r20, r28
     6fe:	4f 5f       	subi	r20, 0xFF	; 255
     700:	5f 4f       	sbci	r21, 0xFF	; 255
     702:	84 0f       	add	r24, r20
     704:	95 1f       	adc	r25, r21
     706:	82 0f       	add	r24, r18
     708:	93 1f       	adc	r25, r19
     70a:	02 96       	adiw	r24, 0x02	; 2
     70c:	fc 01       	movw	r30, r24
     70e:	60 83       	st	Z, r22
     710:	8b a1       	ldd	r24, Y+35	; 0x23
     712:	9c a1       	ldd	r25, Y+36	; 0x24
     714:	2a e0       	ldi	r18, 0x0A	; 10
     716:	30 e0       	ldi	r19, 0x00	; 0
     718:	b9 01       	movw	r22, r18
     71a:	cb da       	rcall	.-2666   	; 0xfffffcb2 <__eeprom_end+0xff7efcb2>
     71c:	cb 01       	movw	r24, r22
     71e:	9c a3       	std	Y+36, r25	; 0x24
     720:	8b a3       	std	Y+35, r24	; 0x23
     722:	89 81       	ldd	r24, Y+1	; 0x01
     724:	8f 5f       	subi	r24, 0xFF	; 255
     726:	89 83       	std	Y+1, r24	; 0x01
     728:	8b a1       	ldd	r24, Y+35	; 0x23
     72a:	9c a1       	ldd	r25, Y+36	; 0x24
     72c:	89 2b       	or	r24, r25
     72e:	39 f6       	brne	.-114    	; 0x6be <Display_Output+0x5e>
     730:	8a 81       	ldd	r24, Y+2	; 0x02
     732:	81 30       	cpi	r24, 0x01	; 1
     734:	19 f5       	brne	.+70     	; 0x77c <Display_Output+0x11c>
     736:	89 81       	ldd	r24, Y+1	; 0x01
     738:	81 30       	cpi	r24, 0x01	; 1
     73a:	19 f4       	brne	.+6      	; 0x742 <Display_Output+0xe2>
     73c:	89 81       	ldd	r24, Y+1	; 0x01
     73e:	8e 5f       	subi	r24, 0xFE	; 254
     740:	89 83       	std	Y+1, r24	; 0x01
     742:	8d a1       	ldd	r24, Y+37	; 0x25
     744:	28 2f       	mov	r18, r24
     746:	30 e0       	ldi	r19, 0x00	; 0
     748:	89 81       	ldd	r24, Y+1	; 0x01
     74a:	88 2f       	mov	r24, r24
     74c:	90 e0       	ldi	r25, 0x00	; 0
     74e:	4d e0       	ldi	r20, 0x0D	; 13
     750:	50 e0       	ldi	r21, 0x00	; 0
     752:	ba 01       	movw	r22, r20
     754:	68 1b       	sub	r22, r24
     756:	79 0b       	sbc	r23, r25
     758:	cb 01       	movw	r24, r22
     75a:	22 95       	swap	r18
     75c:	32 95       	swap	r19
     75e:	30 7f       	andi	r19, 0xF0	; 240
     760:	32 27       	eor	r19, r18
     762:	20 7f       	andi	r18, 0xF0	; 240
     764:	32 27       	eor	r19, r18
     766:	ae 01       	movw	r20, r28
     768:	4f 5f       	subi	r20, 0xFF	; 255
     76a:	5f 4f       	sbci	r21, 0xFF	; 255
     76c:	24 0f       	add	r18, r20
     76e:	35 1f       	adc	r19, r21
     770:	82 0f       	add	r24, r18
     772:	93 1f       	adc	r25, r19
     774:	02 96       	adiw	r24, 0x02	; 2
     776:	2d e2       	ldi	r18, 0x2D	; 45
     778:	fc 01       	movw	r30, r24
     77a:	20 83       	st	Z, r18
     77c:	60 e0       	ldi	r22, 0x00	; 0
     77e:	8d a1       	ldd	r24, Y+37	; 0x25
     780:	b8 de       	rcall	.-656    	; 0x4f2 <Display_SetCursor>
     782:	8d a1       	ldd	r24, Y+37	; 0x25
     784:	88 2f       	mov	r24, r24
     786:	90 e0       	ldi	r25, 0x00	; 0
     788:	9e 01       	movw	r18, r28
     78a:	2d 5f       	subi	r18, 0xFD	; 253
     78c:	3f 4f       	sbci	r19, 0xFF	; 255
     78e:	82 95       	swap	r24
     790:	92 95       	swap	r25
     792:	90 7f       	andi	r25, 0xF0	; 240
     794:	98 27       	eor	r25, r24
     796:	80 7f       	andi	r24, 0xF0	; 240
     798:	98 27       	eor	r25, r24
     79a:	82 0f       	add	r24, r18
     79c:	93 1f       	adc	r25, r19
     79e:	60 e1       	ldi	r22, 0x10	; 16
     7a0:	37 df       	rcall	.-402    	; 0x610 <Display_Print>
     7a2:	60 e0       	ldi	r22, 0x00	; 0
     7a4:	82 e0       	ldi	r24, 0x02	; 2
     7a6:	a5 de       	rcall	.-694    	; 0x4f2 <Display_SetCursor>
     7a8:	00 00       	nop
     7aa:	a6 96       	adiw	r28, 0x26	; 38
     7ac:	0f b6       	in	r0, 0x3f	; 63
     7ae:	f8 94       	cli
     7b0:	de bf       	out	0x3e, r29	; 62
     7b2:	0f be       	out	0x3f, r0	; 63
     7b4:	cd bf       	out	0x3d, r28	; 61
     7b6:	df 91       	pop	r29
     7b8:	cf 91       	pop	r28
     7ba:	08 95       	ret

000007bc <GerneralInit>:
//Date :			27.10.2022
//Author:			Moritz
//Source:
//Status:			ok
//--------------------------------
void GerneralInit(void){
     7bc:	cf 93       	push	r28
     7be:	df 93       	push	r29
     7c0:	cd b7       	in	r28, 0x3d	; 61
     7c2:	de b7       	in	r29, 0x3e	; 62
     7c4:	27 97       	sbiw	r28, 0x07	; 7
     7c6:	0f b6       	in	r0, 0x3f	; 63
     7c8:	f8 94       	cli
     7ca:	de bf       	out	0x3e, r29	; 62
     7cc:	0f be       	out	0x3f, r0	; 63
     7ce:	cd bf       	out	0x3d, r28	; 61
	Display_Init();
     7d0:	ef de       	rcall	.-546    	; 0x5b0 <Display_Init>
	LED_Init();
     7d2:	44 d0       	rcall	.+136    	; 0x85c <LED_Init>
	
	WS2812_Init();
     7d4:	8a d9       	rcall	.-3308   	; 0xfffffaea <__eeprom_end+0xff7efaea>
	keys_Init();
     7d6:	31 d0       	rcall	.+98     	; 0x83a <keys_Init>
	Timer1_Init();
     7d8:	5b d7       	rcall	.+3766   	; 0x1690 <Timer1_Init>
	Servo_Init();
     7da:	2a d6       	rcall	.+3156   	; 0x1430 <Servo_Init>
	
	//Calculate TWI register clock=========================================================
	unsigned int F_CPU = 20/*[MHz]*/;			//Clock of uC_Board in Hz
     7dc:	84 e1       	ldi	r24, 0x14	; 20
     7de:	90 e0       	ldi	r25, 0x00	; 0
     7e0:	9a 83       	std	Y+2, r25	; 0x02
     7e2:	89 83       	std	Y+1, r24	; 0x01
	unsigned int TWI_SCL_FREQ = 400/*[kHz]*/;	//needed TWI frequency for fast speed TWI
     7e4:	80 e9       	ldi	r24, 0x90	; 144
     7e6:	91 e0       	ldi	r25, 0x01	; 1
     7e8:	9c 83       	std	Y+4, r25	; 0x04
     7ea:	8b 83       	std	Y+3, r24	; 0x03
	unsigned int itwi_clock = (((F_CPU*1000 / TWI_SCL_FREQ)- 16) / 2 + 1);
     7ec:	29 81       	ldd	r18, Y+1	; 0x01
     7ee:	3a 81       	ldd	r19, Y+2	; 0x02
     7f0:	88 ee       	ldi	r24, 0xE8	; 232
     7f2:	93 e0       	ldi	r25, 0x03	; 3
     7f4:	28 9f       	mul	r18, r24
     7f6:	a0 01       	movw	r20, r0
     7f8:	29 9f       	mul	r18, r25
     7fa:	50 0d       	add	r21, r0
     7fc:	38 9f       	mul	r19, r24
     7fe:	50 0d       	add	r21, r0
     800:	11 24       	eor	r1, r1
     802:	2b 81       	ldd	r18, Y+3	; 0x03
     804:	3c 81       	ldd	r19, Y+4	; 0x04
     806:	ca 01       	movw	r24, r20
     808:	b9 01       	movw	r22, r18
     80a:	3f da       	rcall	.-2946   	; 0xfffffc8a <__eeprom_end+0xff7efc8a>
     80c:	cb 01       	movw	r24, r22
     80e:	40 97       	sbiw	r24, 0x10	; 16
     810:	96 95       	lsr	r25
     812:	87 95       	ror	r24
     814:	01 96       	adiw	r24, 0x01	; 1
     816:	9e 83       	std	Y+6, r25	; 0x06
     818:	8d 83       	std	Y+5, r24	; 0x05
	unsigned char uctwi_clock = (unsigned char)itwi_clock;
     81a:	8d 81       	ldd	r24, Y+5	; 0x05
     81c:	8f 83       	std	Y+7, r24	; 0x07
	//=====================================================================================	
	TWI_Master_Init(uctwi_clock);
     81e:	8f 81       	ldd	r24, Y+7	; 0x07
     820:	88 2f       	mov	r24, r24
     822:	90 e0       	ldi	r25, 0x00	; 0
     824:	b0 d8       	rcall	.-3744   	; 0xfffff986 <__eeprom_end+0xff7ef986>

	//CAN_Filter_Init();
	//InitTimer2CTC();
}
     826:	00 00       	nop
     828:	27 96       	adiw	r28, 0x07	; 7
     82a:	0f b6       	in	r0, 0x3f	; 63
     82c:	f8 94       	cli
     82e:	de bf       	out	0x3e, r29	; 62
     830:	0f be       	out	0x3f, r0	; 63
     832:	cd bf       	out	0x3d, r28	; 61
     834:	df 91       	pop	r29
     836:	cf 91       	pop	r28
     838:	08 95       	ret

0000083a <keys_Init>:
     83a:	cf 93       	push	r28
     83c:	df 93       	push	r29
     83e:	cd b7       	in	r28, 0x3d	; 61
     840:	de b7       	in	r29, 0x3e	; 62
     842:	8a e2       	ldi	r24, 0x2A	; 42
     844:	90 e0       	ldi	r25, 0x00	; 0
     846:	2a e2       	ldi	r18, 0x2A	; 42
     848:	30 e0       	ldi	r19, 0x00	; 0
     84a:	f9 01       	movw	r30, r18
     84c:	20 81       	ld	r18, Z
     84e:	27 7c       	andi	r18, 0xC7	; 199
     850:	fc 01       	movw	r30, r24
     852:	20 83       	st	Z, r18
     854:	00 00       	nop
     856:	df 91       	pop	r29
     858:	cf 91       	pop	r28
     85a:	08 95       	ret

0000085c <LED_Init>:
     85c:	cf 93       	push	r28
     85e:	df 93       	push	r29
     860:	cd b7       	in	r28, 0x3d	; 61
     862:	de b7       	in	r29, 0x3e	; 62
     864:	84 e2       	ldi	r24, 0x24	; 36
     866:	90 e0       	ldi	r25, 0x00	; 0
     868:	24 e2       	ldi	r18, 0x24	; 36
     86a:	30 e0       	ldi	r19, 0x00	; 0
     86c:	f9 01       	movw	r30, r18
     86e:	20 81       	ld	r18, Z
     870:	24 60       	ori	r18, 0x04	; 4
     872:	fc 01       	movw	r30, r24
     874:	20 83       	st	Z, r18
     876:	00 00       	nop
     878:	df 91       	pop	r29
     87a:	cf 91       	pop	r28
     87c:	08 95       	ret

0000087e <main>:
/** @brief Main function
* @param[in] None
* @return None
*/
int main(void)
{
     87e:	cf 93       	push	r28
     880:	df 93       	push	r29
     882:	1f 92       	push	r1
     884:	cd b7       	in	r28, 0x3d	; 61
     886:	de b7       	in	r29, 0x3e	; 62
	GerneralInit();
     888:	99 df       	rcall	.-206    	; 0x7bc <GerneralInit>
	unsigned char ucCANStatus = CAN_NOT_RECEIVED;
     88a:	85 e6       	ldi	r24, 0x65	; 101
     88c:	89 83       	std	Y+1, r24	; 0x01
	//CAN
	MCP2515_Init(MCP2515_1, BAUDRATE_250_KBPS);
     88e:	25 e0       	ldi	r18, 0x05	; 5
     890:	40 91 11 01 	lds	r20, 0x0111	; 0x800111 <MCP2515_1>
     894:	50 91 12 01 	lds	r21, 0x0112	; 0x800112 <MCP2515_1+0x1>
     898:	60 91 13 01 	lds	r22, 0x0113	; 0x800113 <MCP2515_1+0x2>
     89c:	70 91 14 01 	lds	r23, 0x0114	; 0x800114 <MCP2515_1+0x3>
     8a0:	80 91 15 01 	lds	r24, 0x0115	; 0x800115 <MCP2515_1+0x4>
     8a4:	90 91 16 01 	lds	r25, 0x0116	; 0x800116 <MCP2515_1+0x5>
     8a8:	bf d0       	rcall	.+382    	; 0xa28 <MCP2515_Init>
	// short delay for TMP75 to settle --> not allowed
// 	while (Timer1_get_10msState() == TIMER_RUNNING)
// 	{	
// 	}
	// Measurement for initializing first step
	TMP75_Read_Temperature();
     8aa:	a3 d7       	rcall	.+3910   	; 0x17f2 <TMP75_Read_Temperature>
	iActualTemp = TMP75_Get_Temperature();	//Asks for temp value;
     8ac:	2e d8       	rcall	.-4004   	; 0xfffff90a <__eeprom_end+0xff7ef90a>
     8ae:	90 93 7b 01 	sts	0x017B, r25	; 0x80017b <iActualTemp+0x1>
     8b2:	80 93 7a 01 	sts	0x017A, r24	; 0x80017a <iActualTemp>
	ucStep = TempController(iActualTemp,iTargetTemp, ucStepOld, 0);	// without hysteresis
     8b6:	80 91 6d 01 	lds	r24, 0x016D	; 0x80016d <ucStepOld>
     8ba:	48 2f       	mov	r20, r24
     8bc:	50 e0       	ldi	r21, 0x00	; 0
     8be:	60 91 18 01 	lds	r22, 0x0118	; 0x800118 <iTargetTemp>
     8c2:	70 91 19 01 	lds	r23, 0x0119	; 0x800119 <iTargetTemp+0x1>
     8c6:	80 91 7a 01 	lds	r24, 0x017A	; 0x80017a <iActualTemp>
     8ca:	90 91 7b 01 	lds	r25, 0x017B	; 0x80017b <iActualTemp+0x1>
     8ce:	20 e0       	ldi	r18, 0x00	; 0
     8d0:	30 e0       	ldi	r19, 0x00	; 0
     8d2:	cc db       	rcall	.-2152   	; 0x6c <TempController>
     8d4:	80 93 6c 01 	sts	0x016C, r24	; 0x80016c <__data_end>
	ucStepOld = ucStep; // save old heating step
     8d8:	80 91 6c 01 	lds	r24, 0x016C	; 0x80016c <__data_end>
     8dc:	80 93 6d 01 	sts	0x016D, r24	; 0x80016d <ucStepOld>
	while (1)
	{
		// measure actual temperature
		if (Timer1_get_100msState() == TIMER_TRIGGERED)	/*Prevent tmp75 from overheating, only start every 100ms*/
     8e0:	44 d7       	rcall	.+3720   	; 0x176a <Timer1_get_100msState>
     8e2:	81 30       	cpi	r24, 0x01	; 1
     8e4:	09 f0       	breq	.+2      	; 0x8e8 <main+0x6a>
     8e6:	60 c0       	rjmp	.+192    	; 0x9a8 <main+0x12a>
		{
			TMP75_Read_Temperature();							
     8e8:	84 d7       	rcall	.+3848   	; 0x17f2 <TMP75_Read_Temperature>
			iActualTemp = TMP75_Get_Temperature();	//Asks for temp value;
     8ea:	0f d8       	rcall	.-4066   	; 0xfffff90a <__eeprom_end+0xff7ef90a>
     8ec:	90 93 7b 01 	sts	0x017B, r25	; 0x80017b <iActualTemp+0x1>
     8f0:	80 93 7a 01 	sts	0x017A, r24	; 0x80017a <iActualTemp>
			Display_Output(iActualTemp, 0, 255);
     8f4:	80 91 7a 01 	lds	r24, 0x017A	; 0x80017a <iActualTemp>
     8f8:	90 91 7b 01 	lds	r25, 0x017B	; 0x80017b <iActualTemp+0x1>
     8fc:	4f ef       	ldi	r20, 0xFF	; 255
     8fe:	60 e0       	ldi	r22, 0x00	; 0
     900:	af de       	rcall	.-674    	; 0x660 <Display_Output>
			
			if(MCP2515_Check_Message(MCP2515_1, &sRecFrame) == MESSAGE_RECEIVED)
     902:	2b e8       	ldi	r18, 0x8B	; 139
     904:	31 e0       	ldi	r19, 0x01	; 1
     906:	40 91 11 01 	lds	r20, 0x0111	; 0x800111 <MCP2515_1>
     90a:	50 91 12 01 	lds	r21, 0x0112	; 0x800112 <MCP2515_1+0x1>
     90e:	60 91 13 01 	lds	r22, 0x0113	; 0x800113 <MCP2515_1+0x2>
     912:	70 91 14 01 	lds	r23, 0x0114	; 0x800114 <MCP2515_1+0x3>
     916:	80 91 15 01 	lds	r24, 0x0115	; 0x800115 <MCP2515_1+0x4>
     91a:	90 91 16 01 	lds	r25, 0x0116	; 0x800116 <MCP2515_1+0x5>
     91e:	e9 d3       	rcall	.+2002   	; 0x10f2 <MCP2515_Check_Message>
     920:	81 30       	cpi	r24, 0x01	; 1
     922:	29 f5       	brne	.+74     	; 0x96e <main+0xf0>
			{//es wird geprft ob eine Botschaft ber CAN empfangen wurde
				//wenn ja, wird die Botschaft in sRecFrame gespeichert
				if(sRecFrame.ulID == 0x401)//eine Botschaft mit der ID 0x401 wurde empfangen
     924:	80 91 8d 01 	lds	r24, 0x018D	; 0x80018d <sRecFrame+0x2>
     928:	90 91 8e 01 	lds	r25, 0x018E	; 0x80018e <sRecFrame+0x3>
     92c:	a0 91 8f 01 	lds	r26, 0x018F	; 0x80018f <sRecFrame+0x4>
     930:	b0 91 90 01 	lds	r27, 0x0190	; 0x800190 <sRecFrame+0x5>
     934:	81 30       	cpi	r24, 0x01	; 1
     936:	94 40       	sbci	r25, 0x04	; 4
     938:	a1 05       	cpc	r26, r1
     93a:	b1 05       	cpc	r27, r1
     93c:	c1 f4       	brne	.+48     	; 0x96e <main+0xf0>
				{
					iTargetTemp = (int)(sRecFrame.ucData[0]*10);
     93e:	80 91 92 01 	lds	r24, 0x0192	; 0x800192 <sRecFrame+0x7>
     942:	88 2f       	mov	r24, r24
     944:	90 e0       	ldi	r25, 0x00	; 0
     946:	88 0f       	add	r24, r24
     948:	99 1f       	adc	r25, r25
     94a:	9c 01       	movw	r18, r24
     94c:	22 0f       	add	r18, r18
     94e:	33 1f       	adc	r19, r19
     950:	22 0f       	add	r18, r18
     952:	33 1f       	adc	r19, r19
     954:	82 0f       	add	r24, r18
     956:	93 1f       	adc	r25, r19
     958:	90 93 19 01 	sts	0x0119, r25	; 0x800119 <iTargetTemp+0x1>
     95c:	80 93 18 01 	sts	0x0118, r24	; 0x800118 <iTargetTemp>
					Display_Output(iTargetTemp, 1, 255);
     960:	80 91 18 01 	lds	r24, 0x0118	; 0x800118 <iTargetTemp>
     964:	90 91 19 01 	lds	r25, 0x0119	; 0x800119 <iTargetTemp+0x1>
     968:	4f ef       	ldi	r20, 0xFF	; 255
     96a:	61 e0       	ldi	r22, 0x01	; 1
     96c:	79 de       	rcall	.-782    	; 0x660 <Display_Output>
				}
			}
			// heating controller
			ucStep = TempController(iActualTemp,iTargetTemp, ucStepOld, ucH);
     96e:	80 91 17 01 	lds	r24, 0x0117	; 0x800117 <ucH>
     972:	28 2f       	mov	r18, r24
     974:	30 e0       	ldi	r19, 0x00	; 0
     976:	80 91 6d 01 	lds	r24, 0x016D	; 0x80016d <ucStepOld>
     97a:	48 2f       	mov	r20, r24
     97c:	50 e0       	ldi	r21, 0x00	; 0
     97e:	60 91 18 01 	lds	r22, 0x0118	; 0x800118 <iTargetTemp>
     982:	70 91 19 01 	lds	r23, 0x0119	; 0x800119 <iTargetTemp+0x1>
     986:	80 91 7a 01 	lds	r24, 0x017A	; 0x80017a <iActualTemp>
     98a:	90 91 7b 01 	lds	r25, 0x017B	; 0x80017b <iActualTemp+0x1>
     98e:	6e db       	rcall	.-2340   	; 0x6c <TempController>
     990:	80 93 6c 01 	sts	0x016C, r24	; 0x80016c <__data_end>
			WS2812_Step(ucStep); // set LED color
     994:	80 91 6c 01 	lds	r24, 0x016C	; 0x80016c <__data_end>
     998:	60 d9       	rcall	.-3392   	; 0xfffffc5a <__eeprom_end+0xff7efc5a>
			Servo_Step(ucStep); // set servo position
     99a:	80 91 6c 01 	lds	r24, 0x016C	; 0x80016c <__data_end>
     99e:	69 d5       	rcall	.+2770   	; 0x1472 <Servo_Step>
			ucStepOld = ucStep; // save old heating step		
     9a0:	80 91 6c 01 	lds	r24, 0x016C	; 0x80016c <__data_end>
     9a4:	80 93 6d 01 	sts	0x016D, r24	; 0x80016d <ucStepOld>
		}
		
		//sollte so eventuell schon laufen
		
		if(Timer1_get_1sState() == TIMER_TRIGGERED)
     9a8:	d0 d6       	rcall	.+3488   	; 0x174a <Timer1_get_1sState>
     9aa:	81 30       	cpi	r24, 0x01	; 1
     9ac:	09 f0       	breq	.+2      	; 0x9b0 <main+0x132>
     9ae:	98 cf       	rjmp	.-208    	; 0x8e0 <main+0x62>
		{
			sSendFrame.EIDE_Bit = STANDARD_ID;
     9b0:	10 92 7c 01 	sts	0x017C, r1	; 0x80017c <sSendFrame>
			sSendFrame.RTR_Bit = DATA_FRAME;
     9b4:	10 92 7d 01 	sts	0x017D, r1	; 0x80017d <sSendFrame+0x1>
			sSendFrame.ulID = 0x400;
     9b8:	80 e0       	ldi	r24, 0x00	; 0
     9ba:	94 e0       	ldi	r25, 0x04	; 4
     9bc:	a0 e0       	ldi	r26, 0x00	; 0
     9be:	b0 e0       	ldi	r27, 0x00	; 0
     9c0:	80 93 7e 01 	sts	0x017E, r24	; 0x80017e <sSendFrame+0x2>
     9c4:	90 93 7f 01 	sts	0x017F, r25	; 0x80017f <sSendFrame+0x3>
     9c8:	a0 93 80 01 	sts	0x0180, r26	; 0x800180 <sSendFrame+0x4>
     9cc:	b0 93 81 01 	sts	0x0181, r27	; 0x800181 <sSendFrame+0x5>
			sSendFrame.ucLength = 3;
     9d0:	83 e0       	ldi	r24, 0x03	; 3
     9d2:	80 93 82 01 	sts	0x0182, r24	; 0x800182 <sSendFrame+0x6>
			sSendFrame.ucData[0] = (char)(iActualTemp/10);
     9d6:	80 91 7a 01 	lds	r24, 0x017A	; 0x80017a <iActualTemp>
     9da:	90 91 7b 01 	lds	r25, 0x017B	; 0x80017b <iActualTemp+0x1>
     9de:	2a e0       	ldi	r18, 0x0A	; 10
     9e0:	30 e0       	ldi	r19, 0x00	; 0
     9e2:	b9 01       	movw	r22, r18
     9e4:	66 d9       	rcall	.-3380   	; 0xfffffcb2 <__eeprom_end+0xff7efcb2>
     9e6:	cb 01       	movw	r24, r22
     9e8:	80 93 83 01 	sts	0x0183, r24	; 0x800183 <sSendFrame+0x7>
			sSendFrame.ucData[1] = (unsigned char)(iActualTemp%10);
     9ec:	80 91 7a 01 	lds	r24, 0x017A	; 0x80017a <iActualTemp>
     9f0:	90 91 7b 01 	lds	r25, 0x017B	; 0x80017b <iActualTemp+0x1>
     9f4:	2a e0       	ldi	r18, 0x0A	; 10
     9f6:	30 e0       	ldi	r19, 0x00	; 0
     9f8:	b9 01       	movw	r22, r18
     9fa:	5b d9       	rcall	.-3402   	; 0xfffffcb2 <__eeprom_end+0xff7efcb2>
     9fc:	80 93 84 01 	sts	0x0184, r24	; 0x800184 <sSendFrame+0x8>
			sSendFrame.ucData[2] = ucStep;
     a00:	80 91 6c 01 	lds	r24, 0x016C	; 0x80016c <__data_end>
     a04:	80 93 85 01 	sts	0x0185, r24	; 0x800185 <sSendFrame+0x9>
			MCP2515_Send_Message(MCP2515_1, &sSendFrame);
     a08:	2c e7       	ldi	r18, 0x7C	; 124
     a0a:	31 e0       	ldi	r19, 0x01	; 1
     a0c:	40 91 11 01 	lds	r20, 0x0111	; 0x800111 <MCP2515_1>
     a10:	50 91 12 01 	lds	r21, 0x0112	; 0x800112 <MCP2515_1+0x1>
     a14:	60 91 13 01 	lds	r22, 0x0113	; 0x800113 <MCP2515_1+0x2>
     a18:	70 91 14 01 	lds	r23, 0x0114	; 0x800114 <MCP2515_1+0x3>
     a1c:	80 91 15 01 	lds	r24, 0x0115	; 0x800115 <MCP2515_1+0x4>
     a20:	90 91 16 01 	lds	r25, 0x0116	; 0x800116 <MCP2515_1+0x5>
     a24:	ca d1       	rcall	.+916    	; 0xdba <MCP2515_Send_Message>
		//case CAN_RECEIVED:
		//
		//break;
		//}
		//}
	}
     a26:	5c cf       	rjmp	.-328    	; 0x8e0 <main+0x62>

00000a28 <MCP2515_Init>:
     a28:	cf 93       	push	r28
     a2a:	df 93       	push	r29
     a2c:	cd b7       	in	r28, 0x3d	; 61
     a2e:	de b7       	in	r29, 0x3e	; 62
     a30:	27 97       	sbiw	r28, 0x07	; 7
     a32:	0f b6       	in	r0, 0x3f	; 63
     a34:	f8 94       	cli
     a36:	de bf       	out	0x3e, r29	; 62
     a38:	0f be       	out	0x3f, r0	; 63
     a3a:	cd bf       	out	0x3d, r28	; 61
     a3c:	49 83       	std	Y+1, r20	; 0x01
     a3e:	5a 83       	std	Y+2, r21	; 0x02
     a40:	6b 83       	std	Y+3, r22	; 0x03
     a42:	7c 83       	std	Y+4, r23	; 0x04
     a44:	8d 83       	std	Y+5, r24	; 0x05
     a46:	9e 83       	std	Y+6, r25	; 0x06
     a48:	2f 83       	std	Y+7, r18	; 0x07
     a4a:	49 81       	ldd	r20, Y+1	; 0x01
     a4c:	5a 81       	ldd	r21, Y+2	; 0x02
     a4e:	6b 81       	ldd	r22, Y+3	; 0x03
     a50:	7c 81       	ldd	r23, Y+4	; 0x04
     a52:	8d 81       	ldd	r24, Y+5	; 0x05
     a54:	9e 81       	ldd	r25, Y+6	; 0x06
     a56:	6c d5       	rcall	.+2776   	; 0x1530 <SPI_Master_SlaveSelectInit>
     a58:	20 e0       	ldi	r18, 0x00	; 0
     a5a:	43 e0       	ldi	r20, 0x03	; 3
     a5c:	60 e0       	ldi	r22, 0x00	; 0
     a5e:	80 e0       	ldi	r24, 0x00	; 0
     a60:	1e d5       	rcall	.+2620   	; 0x149e <SPI_Master_Init>
     a62:	20 e8       	ldi	r18, 0x80	; 128
     a64:	49 81       	ldd	r20, Y+1	; 0x01
     a66:	5a 81       	ldd	r21, Y+2	; 0x02
     a68:	6b 81       	ldd	r22, Y+3	; 0x03
     a6a:	7c 81       	ldd	r23, Y+4	; 0x04
     a6c:	8d 81       	ldd	r24, Y+5	; 0x05
     a6e:	9e 81       	ldd	r25, Y+6	; 0x06
     a70:	a2 d0       	rcall	.+324    	; 0xbb6 <MCP2515_Set_OpMode>
     a72:	2f 81       	ldd	r18, Y+7	; 0x07
     a74:	49 81       	ldd	r20, Y+1	; 0x01
     a76:	5a 81       	ldd	r21, Y+2	; 0x02
     a78:	6b 81       	ldd	r22, Y+3	; 0x03
     a7a:	7c 81       	ldd	r23, Y+4	; 0x04
     a7c:	8d 81       	ldd	r24, Y+5	; 0x05
     a7e:	9e 81       	ldd	r25, Y+6	; 0x06
     a80:	ec d0       	rcall	.+472    	; 0xc5a <MCP2515_Set_Baudrate>
     a82:	20 e0       	ldi	r18, 0x00	; 0
     a84:	49 81       	ldd	r20, Y+1	; 0x01
     a86:	5a 81       	ldd	r21, Y+2	; 0x02
     a88:	6b 81       	ldd	r22, Y+3	; 0x03
     a8a:	7c 81       	ldd	r23, Y+4	; 0x04
     a8c:	8d 81       	ldd	r24, Y+5	; 0x05
     a8e:	9e 81       	ldd	r25, Y+6	; 0x06
     a90:	bb d0       	rcall	.+374    	; 0xc08 <MCP2515_Change_ClkOut>
     a92:	20 e0       	ldi	r18, 0x00	; 0
     a94:	49 81       	ldd	r20, Y+1	; 0x01
     a96:	5a 81       	ldd	r21, Y+2	; 0x02
     a98:	6b 81       	ldd	r22, Y+3	; 0x03
     a9a:	7c 81       	ldd	r23, Y+4	; 0x04
     a9c:	8d 81       	ldd	r24, Y+5	; 0x05
     a9e:	9e 81       	ldd	r25, Y+6	; 0x06
     aa0:	8a d0       	rcall	.+276    	; 0xbb6 <MCP2515_Set_OpMode>
     aa2:	00 00       	nop
     aa4:	27 96       	adiw	r28, 0x07	; 7
     aa6:	0f b6       	in	r0, 0x3f	; 63
     aa8:	f8 94       	cli
     aaa:	de bf       	out	0x3e, r29	; 62
     aac:	0f be       	out	0x3f, r0	; 63
     aae:	cd bf       	out	0x3d, r28	; 61
     ab0:	df 91       	pop	r29
     ab2:	cf 91       	pop	r28
     ab4:	08 95       	ret

00000ab6 <MCP2515_Write_Reg>:
     ab6:	ef 92       	push	r14
     ab8:	ff 92       	push	r15
     aba:	0f 93       	push	r16
     abc:	cf 93       	push	r28
     abe:	df 93       	push	r29
     ac0:	cd b7       	in	r28, 0x3d	; 61
     ac2:	de b7       	in	r29, 0x3e	; 62
     ac4:	2b 97       	sbiw	r28, 0x0b	; 11
     ac6:	0f b6       	in	r0, 0x3f	; 63
     ac8:	f8 94       	cli
     aca:	de bf       	out	0x3e, r29	; 62
     acc:	0f be       	out	0x3f, r0	; 63
     ace:	cd bf       	out	0x3d, r28	; 61
     ad0:	4a 83       	std	Y+2, r20	; 0x02
     ad2:	5b 83       	std	Y+3, r21	; 0x03
     ad4:	6c 83       	std	Y+4, r22	; 0x04
     ad6:	7d 83       	std	Y+5, r23	; 0x05
     ad8:	8e 83       	std	Y+6, r24	; 0x06
     ada:	9f 83       	std	Y+7, r25	; 0x07
     adc:	28 87       	std	Y+8, r18	; 0x08
     ade:	09 87       	std	Y+9, r16	; 0x09
     ae0:	fb 86       	std	Y+11, r15	; 0x0b
     ae2:	ea 86       	std	Y+10, r14	; 0x0a
     ae4:	4a 81       	ldd	r20, Y+2	; 0x02
     ae6:	5b 81       	ldd	r21, Y+3	; 0x03
     ae8:	6c 81       	ldd	r22, Y+4	; 0x04
     aea:	7d 81       	ldd	r23, Y+5	; 0x05
     aec:	8e 81       	ldd	r24, Y+6	; 0x06
     aee:	9f 81       	ldd	r25, Y+7	; 0x07
     af0:	5e d5       	rcall	.+2748   	; 0x15ae <SPI_Master_Start>
     af2:	82 e0       	ldi	r24, 0x02	; 2
     af4:	b3 d5       	rcall	.+2918   	; 0x165c <SPI_Master_Write>
     af6:	88 85       	ldd	r24, Y+8	; 0x08
     af8:	b1 d5       	rcall	.+2914   	; 0x165c <SPI_Master_Write>
     afa:	19 82       	std	Y+1, r1	; 0x01
     afc:	0d c0       	rjmp	.+26     	; 0xb18 <MCP2515_Write_Reg+0x62>
     afe:	89 81       	ldd	r24, Y+1	; 0x01
     b00:	88 2f       	mov	r24, r24
     b02:	90 e0       	ldi	r25, 0x00	; 0
     b04:	2a 85       	ldd	r18, Y+10	; 0x0a
     b06:	3b 85       	ldd	r19, Y+11	; 0x0b
     b08:	82 0f       	add	r24, r18
     b0a:	93 1f       	adc	r25, r19
     b0c:	fc 01       	movw	r30, r24
     b0e:	80 81       	ld	r24, Z
     b10:	a5 d5       	rcall	.+2890   	; 0x165c <SPI_Master_Write>
     b12:	89 81       	ldd	r24, Y+1	; 0x01
     b14:	8f 5f       	subi	r24, 0xFF	; 255
     b16:	89 83       	std	Y+1, r24	; 0x01
     b18:	99 81       	ldd	r25, Y+1	; 0x01
     b1a:	89 85       	ldd	r24, Y+9	; 0x09
     b1c:	98 17       	cp	r25, r24
     b1e:	78 f3       	brcs	.-34     	; 0xafe <MCP2515_Write_Reg+0x48>
     b20:	4a 81       	ldd	r20, Y+2	; 0x02
     b22:	5b 81       	ldd	r21, Y+3	; 0x03
     b24:	6c 81       	ldd	r22, Y+4	; 0x04
     b26:	7d 81       	ldd	r23, Y+5	; 0x05
     b28:	8e 81       	ldd	r24, Y+6	; 0x06
     b2a:	9f 81       	ldd	r25, Y+7	; 0x07
     b2c:	6c d5       	rcall	.+2776   	; 0x1606 <SPI_Master_Stop>
     b2e:	00 00       	nop
     b30:	2b 96       	adiw	r28, 0x0b	; 11
     b32:	0f b6       	in	r0, 0x3f	; 63
     b34:	f8 94       	cli
     b36:	de bf       	out	0x3e, r29	; 62
     b38:	0f be       	out	0x3f, r0	; 63
     b3a:	cd bf       	out	0x3d, r28	; 61
     b3c:	df 91       	pop	r29
     b3e:	cf 91       	pop	r28
     b40:	0f 91       	pop	r16
     b42:	ff 90       	pop	r15
     b44:	ef 90       	pop	r14
     b46:	08 95       	ret

00000b48 <MCP2515_Change_Reg>:
     b48:	ef 92       	push	r14
     b4a:	0f 93       	push	r16
     b4c:	cf 93       	push	r28
     b4e:	df 93       	push	r29
     b50:	cd b7       	in	r28, 0x3d	; 61
     b52:	de b7       	in	r29, 0x3e	; 62
     b54:	29 97       	sbiw	r28, 0x09	; 9
     b56:	0f b6       	in	r0, 0x3f	; 63
     b58:	f8 94       	cli
     b5a:	de bf       	out	0x3e, r29	; 62
     b5c:	0f be       	out	0x3f, r0	; 63
     b5e:	cd bf       	out	0x3d, r28	; 61
     b60:	49 83       	std	Y+1, r20	; 0x01
     b62:	5a 83       	std	Y+2, r21	; 0x02
     b64:	6b 83       	std	Y+3, r22	; 0x03
     b66:	7c 83       	std	Y+4, r23	; 0x04
     b68:	8d 83       	std	Y+5, r24	; 0x05
     b6a:	9e 83       	std	Y+6, r25	; 0x06
     b6c:	2f 83       	std	Y+7, r18	; 0x07
     b6e:	08 87       	std	Y+8, r16	; 0x08
     b70:	e9 86       	std	Y+9, r14	; 0x09
     b72:	49 81       	ldd	r20, Y+1	; 0x01
     b74:	5a 81       	ldd	r21, Y+2	; 0x02
     b76:	6b 81       	ldd	r22, Y+3	; 0x03
     b78:	7c 81       	ldd	r23, Y+4	; 0x04
     b7a:	8d 81       	ldd	r24, Y+5	; 0x05
     b7c:	9e 81       	ldd	r25, Y+6	; 0x06
     b7e:	17 d5       	rcall	.+2606   	; 0x15ae <SPI_Master_Start>
     b80:	85 e0       	ldi	r24, 0x05	; 5
     b82:	6c d5       	rcall	.+2776   	; 0x165c <SPI_Master_Write>
     b84:	8f 81       	ldd	r24, Y+7	; 0x07
     b86:	6a d5       	rcall	.+2772   	; 0x165c <SPI_Master_Write>
     b88:	88 85       	ldd	r24, Y+8	; 0x08
     b8a:	68 d5       	rcall	.+2768   	; 0x165c <SPI_Master_Write>
     b8c:	89 85       	ldd	r24, Y+9	; 0x09
     b8e:	66 d5       	rcall	.+2764   	; 0x165c <SPI_Master_Write>
     b90:	49 81       	ldd	r20, Y+1	; 0x01
     b92:	5a 81       	ldd	r21, Y+2	; 0x02
     b94:	6b 81       	ldd	r22, Y+3	; 0x03
     b96:	7c 81       	ldd	r23, Y+4	; 0x04
     b98:	8d 81       	ldd	r24, Y+5	; 0x05
     b9a:	9e 81       	ldd	r25, Y+6	; 0x06
     b9c:	34 d5       	rcall	.+2664   	; 0x1606 <SPI_Master_Stop>
     b9e:	00 00       	nop
     ba0:	29 96       	adiw	r28, 0x09	; 9
     ba2:	0f b6       	in	r0, 0x3f	; 63
     ba4:	f8 94       	cli
     ba6:	de bf       	out	0x3e, r29	; 62
     ba8:	0f be       	out	0x3f, r0	; 63
     baa:	cd bf       	out	0x3d, r28	; 61
     bac:	df 91       	pop	r29
     bae:	cf 91       	pop	r28
     bb0:	0f 91       	pop	r16
     bb2:	ef 90       	pop	r14
     bb4:	08 95       	ret

00000bb6 <MCP2515_Set_OpMode>:
     bb6:	ef 92       	push	r14
     bb8:	0f 93       	push	r16
     bba:	cf 93       	push	r28
     bbc:	df 93       	push	r29
     bbe:	cd b7       	in	r28, 0x3d	; 61
     bc0:	de b7       	in	r29, 0x3e	; 62
     bc2:	27 97       	sbiw	r28, 0x07	; 7
     bc4:	0f b6       	in	r0, 0x3f	; 63
     bc6:	f8 94       	cli
     bc8:	de bf       	out	0x3e, r29	; 62
     bca:	0f be       	out	0x3f, r0	; 63
     bcc:	cd bf       	out	0x3d, r28	; 61
     bce:	49 83       	std	Y+1, r20	; 0x01
     bd0:	5a 83       	std	Y+2, r21	; 0x02
     bd2:	6b 83       	std	Y+3, r22	; 0x03
     bd4:	7c 83       	std	Y+4, r23	; 0x04
     bd6:	8d 83       	std	Y+5, r24	; 0x05
     bd8:	9e 83       	std	Y+6, r25	; 0x06
     bda:	2f 83       	std	Y+7, r18	; 0x07
     bdc:	ef 80       	ldd	r14, Y+7	; 0x07
     bde:	00 ee       	ldi	r16, 0xE0	; 224
     be0:	2f e0       	ldi	r18, 0x0F	; 15
     be2:	49 81       	ldd	r20, Y+1	; 0x01
     be4:	5a 81       	ldd	r21, Y+2	; 0x02
     be6:	6b 81       	ldd	r22, Y+3	; 0x03
     be8:	7c 81       	ldd	r23, Y+4	; 0x04
     bea:	8d 81       	ldd	r24, Y+5	; 0x05
     bec:	9e 81       	ldd	r25, Y+6	; 0x06
     bee:	ac df       	rcall	.-168    	; 0xb48 <MCP2515_Change_Reg>
     bf0:	00 00       	nop
     bf2:	27 96       	adiw	r28, 0x07	; 7
     bf4:	0f b6       	in	r0, 0x3f	; 63
     bf6:	f8 94       	cli
     bf8:	de bf       	out	0x3e, r29	; 62
     bfa:	0f be       	out	0x3f, r0	; 63
     bfc:	cd bf       	out	0x3d, r28	; 61
     bfe:	df 91       	pop	r29
     c00:	cf 91       	pop	r28
     c02:	0f 91       	pop	r16
     c04:	ef 90       	pop	r14
     c06:	08 95       	ret

00000c08 <MCP2515_Change_ClkOut>:
     c08:	ef 92       	push	r14
     c0a:	0f 93       	push	r16
     c0c:	cf 93       	push	r28
     c0e:	df 93       	push	r29
     c10:	cd b7       	in	r28, 0x3d	; 61
     c12:	de b7       	in	r29, 0x3e	; 62
     c14:	27 97       	sbiw	r28, 0x07	; 7
     c16:	0f b6       	in	r0, 0x3f	; 63
     c18:	f8 94       	cli
     c1a:	de bf       	out	0x3e, r29	; 62
     c1c:	0f be       	out	0x3f, r0	; 63
     c1e:	cd bf       	out	0x3d, r28	; 61
     c20:	49 83       	std	Y+1, r20	; 0x01
     c22:	5a 83       	std	Y+2, r21	; 0x02
     c24:	6b 83       	std	Y+3, r22	; 0x03
     c26:	7c 83       	std	Y+4, r23	; 0x04
     c28:	8d 83       	std	Y+5, r24	; 0x05
     c2a:	9e 83       	std	Y+6, r25	; 0x06
     c2c:	2f 83       	std	Y+7, r18	; 0x07
     c2e:	ef 80       	ldd	r14, Y+7	; 0x07
     c30:	07 e0       	ldi	r16, 0x07	; 7
     c32:	2f e0       	ldi	r18, 0x0F	; 15
     c34:	49 81       	ldd	r20, Y+1	; 0x01
     c36:	5a 81       	ldd	r21, Y+2	; 0x02
     c38:	6b 81       	ldd	r22, Y+3	; 0x03
     c3a:	7c 81       	ldd	r23, Y+4	; 0x04
     c3c:	8d 81       	ldd	r24, Y+5	; 0x05
     c3e:	9e 81       	ldd	r25, Y+6	; 0x06
     c40:	83 df       	rcall	.-250    	; 0xb48 <MCP2515_Change_Reg>
     c42:	00 00       	nop
     c44:	27 96       	adiw	r28, 0x07	; 7
     c46:	0f b6       	in	r0, 0x3f	; 63
     c48:	f8 94       	cli
     c4a:	de bf       	out	0x3e, r29	; 62
     c4c:	0f be       	out	0x3f, r0	; 63
     c4e:	cd bf       	out	0x3d, r28	; 61
     c50:	df 91       	pop	r29
     c52:	cf 91       	pop	r28
     c54:	0f 91       	pop	r16
     c56:	ef 90       	pop	r14
     c58:	08 95       	ret

00000c5a <MCP2515_Set_Baudrate>:
     c5a:	ef 92       	push	r14
     c5c:	ff 92       	push	r15
     c5e:	0f 93       	push	r16
     c60:	cf 93       	push	r28
     c62:	df 93       	push	r29
     c64:	cd b7       	in	r28, 0x3d	; 61
     c66:	de b7       	in	r29, 0x3e	; 62
     c68:	27 97       	sbiw	r28, 0x07	; 7
     c6a:	0f b6       	in	r0, 0x3f	; 63
     c6c:	f8 94       	cli
     c6e:	de bf       	out	0x3e, r29	; 62
     c70:	0f be       	out	0x3f, r0	; 63
     c72:	cd bf       	out	0x3d, r28	; 61
     c74:	49 83       	std	Y+1, r20	; 0x01
     c76:	5a 83       	std	Y+2, r21	; 0x02
     c78:	6b 83       	std	Y+3, r22	; 0x03
     c7a:	7c 83       	std	Y+4, r23	; 0x04
     c7c:	8d 83       	std	Y+5, r24	; 0x05
     c7e:	9e 83       	std	Y+6, r25	; 0x06
     c80:	2f 83       	std	Y+7, r18	; 0x07
     c82:	8f 81       	ldd	r24, Y+7	; 0x07
     c84:	28 2f       	mov	r18, r24
     c86:	30 e0       	ldi	r19, 0x00	; 0
     c88:	c9 01       	movw	r24, r18
     c8a:	88 0f       	add	r24, r24
     c8c:	99 1f       	adc	r25, r25
     c8e:	82 0f       	add	r24, r18
     c90:	93 1f       	adc	r25, r19
     c92:	86 5e       	subi	r24, 0xE6	; 230
     c94:	9e 4f       	sbci	r25, 0xFE	; 254
     c96:	7c 01       	movw	r14, r24
     c98:	03 e0       	ldi	r16, 0x03	; 3
     c9a:	28 e2       	ldi	r18, 0x28	; 40
     c9c:	49 81       	ldd	r20, Y+1	; 0x01
     c9e:	5a 81       	ldd	r21, Y+2	; 0x02
     ca0:	6b 81       	ldd	r22, Y+3	; 0x03
     ca2:	7c 81       	ldd	r23, Y+4	; 0x04
     ca4:	8d 81       	ldd	r24, Y+5	; 0x05
     ca6:	9e 81       	ldd	r25, Y+6	; 0x06
     ca8:	06 df       	rcall	.-500    	; 0xab6 <MCP2515_Write_Reg>
     caa:	00 00       	nop
     cac:	27 96       	adiw	r28, 0x07	; 7
     cae:	0f b6       	in	r0, 0x3f	; 63
     cb0:	f8 94       	cli
     cb2:	de bf       	out	0x3e, r29	; 62
     cb4:	0f be       	out	0x3f, r0	; 63
     cb6:	cd bf       	out	0x3d, r28	; 61
     cb8:	df 91       	pop	r29
     cba:	cf 91       	pop	r28
     cbc:	0f 91       	pop	r16
     cbe:	ff 90       	pop	r15
     cc0:	ef 90       	pop	r14
     cc2:	08 95       	ret

00000cc4 <MCP2515_Read_Status>:
     cc4:	cf 93       	push	r28
     cc6:	df 93       	push	r29
     cc8:	cd b7       	in	r28, 0x3d	; 61
     cca:	de b7       	in	r29, 0x3e	; 62
     ccc:	28 97       	sbiw	r28, 0x08	; 8
     cce:	0f b6       	in	r0, 0x3f	; 63
     cd0:	f8 94       	cli
     cd2:	de bf       	out	0x3e, r29	; 62
     cd4:	0f be       	out	0x3f, r0	; 63
     cd6:	cd bf       	out	0x3d, r28	; 61
     cd8:	4b 83       	std	Y+3, r20	; 0x03
     cda:	5c 83       	std	Y+4, r21	; 0x04
     cdc:	6d 83       	std	Y+5, r22	; 0x05
     cde:	7e 83       	std	Y+6, r23	; 0x06
     ce0:	8f 83       	std	Y+7, r24	; 0x07
     ce2:	98 87       	std	Y+8, r25	; 0x08
     ce4:	8f ef       	ldi	r24, 0xFF	; 255
     ce6:	89 83       	std	Y+1, r24	; 0x01
     ce8:	4b 81       	ldd	r20, Y+3	; 0x03
     cea:	5c 81       	ldd	r21, Y+4	; 0x04
     cec:	6d 81       	ldd	r22, Y+5	; 0x05
     cee:	7e 81       	ldd	r23, Y+6	; 0x06
     cf0:	8f 81       	ldd	r24, Y+7	; 0x07
     cf2:	98 85       	ldd	r25, Y+8	; 0x08
     cf4:	5c d4       	rcall	.+2232   	; 0x15ae <SPI_Master_Start>
     cf6:	80 ea       	ldi	r24, 0xA0	; 160
     cf8:	b1 d4       	rcall	.+2402   	; 0x165c <SPI_Master_Write>
     cfa:	89 81       	ldd	r24, Y+1	; 0x01
     cfc:	af d4       	rcall	.+2398   	; 0x165c <SPI_Master_Write>
     cfe:	8a 83       	std	Y+2, r24	; 0x02
     d00:	89 81       	ldd	r24, Y+1	; 0x01
     d02:	ac d4       	rcall	.+2392   	; 0x165c <SPI_Master_Write>
     d04:	4b 81       	ldd	r20, Y+3	; 0x03
     d06:	5c 81       	ldd	r21, Y+4	; 0x04
     d08:	6d 81       	ldd	r22, Y+5	; 0x05
     d0a:	7e 81       	ldd	r23, Y+6	; 0x06
     d0c:	8f 81       	ldd	r24, Y+7	; 0x07
     d0e:	98 85       	ldd	r25, Y+8	; 0x08
     d10:	7a d4       	rcall	.+2292   	; 0x1606 <SPI_Master_Stop>
     d12:	8a 81       	ldd	r24, Y+2	; 0x02
     d14:	28 96       	adiw	r28, 0x08	; 8
     d16:	0f b6       	in	r0, 0x3f	; 63
     d18:	f8 94       	cli
     d1a:	de bf       	out	0x3e, r29	; 62
     d1c:	0f be       	out	0x3f, r0	; 63
     d1e:	cd bf       	out	0x3d, r28	; 61
     d20:	df 91       	pop	r29
     d22:	cf 91       	pop	r28
     d24:	08 95       	ret

00000d26 <MCP2515_Load_TXBuffer>:
     d26:	ef 92       	push	r14
     d28:	ff 92       	push	r15
     d2a:	0f 93       	push	r16
     d2c:	cf 93       	push	r28
     d2e:	df 93       	push	r29
     d30:	cd b7       	in	r28, 0x3d	; 61
     d32:	de b7       	in	r29, 0x3e	; 62
     d34:	2c 97       	sbiw	r28, 0x0c	; 12
     d36:	0f b6       	in	r0, 0x3f	; 63
     d38:	f8 94       	cli
     d3a:	de bf       	out	0x3e, r29	; 62
     d3c:	0f be       	out	0x3f, r0	; 63
     d3e:	cd bf       	out	0x3d, r28	; 61
     d40:	4b 83       	std	Y+3, r20	; 0x03
     d42:	5c 83       	std	Y+4, r21	; 0x04
     d44:	6d 83       	std	Y+5, r22	; 0x05
     d46:	7e 83       	std	Y+6, r23	; 0x06
     d48:	8f 83       	std	Y+7, r24	; 0x07
     d4a:	98 87       	std	Y+8, r25	; 0x08
     d4c:	29 87       	std	Y+9, r18	; 0x09
     d4e:	0a 87       	std	Y+10, r16	; 0x0a
     d50:	fc 86       	std	Y+12, r15	; 0x0c
     d52:	eb 86       	std	Y+11, r14	; 0x0b
     d54:	89 85       	ldd	r24, Y+9	; 0x09
     d56:	80 64       	ori	r24, 0x40	; 64
     d58:	8a 83       	std	Y+2, r24	; 0x02
     d5a:	4b 81       	ldd	r20, Y+3	; 0x03
     d5c:	5c 81       	ldd	r21, Y+4	; 0x04
     d5e:	6d 81       	ldd	r22, Y+5	; 0x05
     d60:	7e 81       	ldd	r23, Y+6	; 0x06
     d62:	8f 81       	ldd	r24, Y+7	; 0x07
     d64:	98 85       	ldd	r25, Y+8	; 0x08
     d66:	23 d4       	rcall	.+2118   	; 0x15ae <SPI_Master_Start>
     d68:	8a 81       	ldd	r24, Y+2	; 0x02
     d6a:	78 d4       	rcall	.+2288   	; 0x165c <SPI_Master_Write>
     d6c:	19 82       	std	Y+1, r1	; 0x01
     d6e:	0d c0       	rjmp	.+26     	; 0xd8a <MCP2515_Load_TXBuffer+0x64>
     d70:	89 81       	ldd	r24, Y+1	; 0x01
     d72:	88 2f       	mov	r24, r24
     d74:	90 e0       	ldi	r25, 0x00	; 0
     d76:	2b 85       	ldd	r18, Y+11	; 0x0b
     d78:	3c 85       	ldd	r19, Y+12	; 0x0c
     d7a:	82 0f       	add	r24, r18
     d7c:	93 1f       	adc	r25, r19
     d7e:	fc 01       	movw	r30, r24
     d80:	80 81       	ld	r24, Z
     d82:	6c d4       	rcall	.+2264   	; 0x165c <SPI_Master_Write>
     d84:	89 81       	ldd	r24, Y+1	; 0x01
     d86:	8f 5f       	subi	r24, 0xFF	; 255
     d88:	89 83       	std	Y+1, r24	; 0x01
     d8a:	99 81       	ldd	r25, Y+1	; 0x01
     d8c:	8a 85       	ldd	r24, Y+10	; 0x0a
     d8e:	98 17       	cp	r25, r24
     d90:	78 f3       	brcs	.-34     	; 0xd70 <MCP2515_Load_TXBuffer+0x4a>
     d92:	4b 81       	ldd	r20, Y+3	; 0x03
     d94:	5c 81       	ldd	r21, Y+4	; 0x04
     d96:	6d 81       	ldd	r22, Y+5	; 0x05
     d98:	7e 81       	ldd	r23, Y+6	; 0x06
     d9a:	8f 81       	ldd	r24, Y+7	; 0x07
     d9c:	98 85       	ldd	r25, Y+8	; 0x08
     d9e:	33 d4       	rcall	.+2150   	; 0x1606 <SPI_Master_Stop>
     da0:	00 00       	nop
     da2:	2c 96       	adiw	r28, 0x0c	; 12
     da4:	0f b6       	in	r0, 0x3f	; 63
     da6:	f8 94       	cli
     da8:	de bf       	out	0x3e, r29	; 62
     daa:	0f be       	out	0x3f, r0	; 63
     dac:	cd bf       	out	0x3d, r28	; 61
     dae:	df 91       	pop	r29
     db0:	cf 91       	pop	r28
     db2:	0f 91       	pop	r16
     db4:	ff 90       	pop	r15
     db6:	ef 90       	pop	r14
     db8:	08 95       	ret

00000dba <MCP2515_Send_Message>:
     dba:	ef 92       	push	r14
     dbc:	ff 92       	push	r15
     dbe:	0f 93       	push	r16
     dc0:	cf 93       	push	r28
     dc2:	df 93       	push	r29
     dc4:	cd b7       	in	r28, 0x3d	; 61
     dc6:	de b7       	in	r29, 0x3e	; 62
     dc8:	64 97       	sbiw	r28, 0x14	; 20
     dca:	0f b6       	in	r0, 0x3f	; 63
     dcc:	f8 94       	cli
     dce:	de bf       	out	0x3e, r29	; 62
     dd0:	0f be       	out	0x3f, r0	; 63
     dd2:	cd bf       	out	0x3d, r28	; 61
     dd4:	4d 87       	std	Y+13, r20	; 0x0d
     dd6:	5e 87       	std	Y+14, r21	; 0x0e
     dd8:	6f 87       	std	Y+15, r22	; 0x0f
     dda:	78 8b       	std	Y+16, r23	; 0x10
     ddc:	89 8b       	std	Y+17, r24	; 0x11
     dde:	9a 8b       	std	Y+18, r25	; 0x12
     de0:	3c 8b       	std	Y+20, r19	; 0x14
     de2:	2b 8b       	std	Y+19, r18	; 0x13
     de4:	1c 82       	std	Y+4, r1	; 0x04
     de6:	1a 86       	std	Y+10, r1	; 0x0a
     de8:	82 e0       	ldi	r24, 0x02	; 2
     dea:	8b 87       	std	Y+11, r24	; 0x0b
     dec:	84 e0       	ldi	r24, 0x04	; 4
     dee:	8c 87       	std	Y+12, r24	; 0x0c
     df0:	4d 85       	ldd	r20, Y+13	; 0x0d
     df2:	5e 85       	ldd	r21, Y+14	; 0x0e
     df4:	6f 85       	ldd	r22, Y+15	; 0x0f
     df6:	78 89       	ldd	r23, Y+16	; 0x10
     df8:	89 89       	ldd	r24, Y+17	; 0x11
     dfa:	9a 89       	ldd	r25, Y+18	; 0x12
     dfc:	63 df       	rcall	.-314    	; 0xcc4 <MCP2515_Read_Status>
     dfe:	8c 83       	std	Y+4, r24	; 0x04
     e00:	8c 81       	ldd	r24, Y+4	; 0x04
     e02:	88 2f       	mov	r24, r24
     e04:	90 e0       	ldi	r25, 0x00	; 0
     e06:	84 70       	andi	r24, 0x04	; 4
     e08:	99 27       	eor	r25, r25
     e0a:	89 2b       	or	r24, r25
     e0c:	11 f4       	brne	.+4      	; 0xe12 <MCP2515_Send_Message+0x58>
     e0e:	19 82       	std	Y+1, r1	; 0x01
     e10:	16 c0       	rjmp	.+44     	; 0xe3e <MCP2515_Send_Message+0x84>
     e12:	8c 81       	ldd	r24, Y+4	; 0x04
     e14:	88 2f       	mov	r24, r24
     e16:	90 e0       	ldi	r25, 0x00	; 0
     e18:	80 71       	andi	r24, 0x10	; 16
     e1a:	99 27       	eor	r25, r25
     e1c:	89 2b       	or	r24, r25
     e1e:	19 f4       	brne	.+6      	; 0xe26 <MCP2515_Send_Message+0x6c>
     e20:	81 e0       	ldi	r24, 0x01	; 1
     e22:	89 83       	std	Y+1, r24	; 0x01
     e24:	0c c0       	rjmp	.+24     	; 0xe3e <MCP2515_Send_Message+0x84>
     e26:	8c 81       	ldd	r24, Y+4	; 0x04
     e28:	88 2f       	mov	r24, r24
     e2a:	90 e0       	ldi	r25, 0x00	; 0
     e2c:	80 74       	andi	r24, 0x40	; 64
     e2e:	99 27       	eor	r25, r25
     e30:	89 2b       	or	r24, r25
     e32:	19 f4       	brne	.+6      	; 0xe3a <MCP2515_Send_Message+0x80>
     e34:	82 e0       	ldi	r24, 0x02	; 2
     e36:	89 83       	std	Y+1, r24	; 0x01
     e38:	02 c0       	rjmp	.+4      	; 0xe3e <MCP2515_Send_Message+0x84>
     e3a:	81 e0       	ldi	r24, 0x01	; 1
     e3c:	e6 c0       	rjmp	.+460    	; 0x100a <MCP2515_Send_Message+0x250>
     e3e:	1a 82       	std	Y+2, r1	; 0x02
     e40:	0a c0       	rjmp	.+20     	; 0xe56 <MCP2515_Send_Message+0x9c>
     e42:	8a 81       	ldd	r24, Y+2	; 0x02
     e44:	88 2f       	mov	r24, r24
     e46:	90 e0       	ldi	r25, 0x00	; 0
     e48:	89 55       	subi	r24, 0x59	; 89
     e4a:	9e 4f       	sbci	r25, 0xFE	; 254
     e4c:	fc 01       	movw	r30, r24
     e4e:	10 82       	st	Z, r1
     e50:	8a 81       	ldd	r24, Y+2	; 0x02
     e52:	8f 5f       	subi	r24, 0xFF	; 255
     e54:	8a 83       	std	Y+2, r24	; 0x02
     e56:	8a 81       	ldd	r24, Y+2	; 0x02
     e58:	8d 30       	cpi	r24, 0x0D	; 13
     e5a:	98 f3       	brcs	.-26     	; 0xe42 <MCP2515_Send_Message+0x88>
     e5c:	8b 89       	ldd	r24, Y+19	; 0x13
     e5e:	9c 89       	ldd	r25, Y+20	; 0x14
     e60:	fc 01       	movw	r30, r24
     e62:	80 81       	ld	r24, Z
     e64:	88 23       	and	r24, r24
     e66:	29 f5       	brne	.+74     	; 0xeb2 <MCP2515_Send_Message+0xf8>
     e68:	8b 89       	ldd	r24, Y+19	; 0x13
     e6a:	9c 89       	ldd	r25, Y+20	; 0x14
     e6c:	fc 01       	movw	r30, r24
     e6e:	82 81       	ldd	r24, Z+2	; 0x02
     e70:	93 81       	ldd	r25, Z+3	; 0x03
     e72:	a4 81       	ldd	r26, Z+4	; 0x04
     e74:	b5 81       	ldd	r27, Z+5	; 0x05
     e76:	88 2f       	mov	r24, r24
     e78:	90 e0       	ldi	r25, 0x00	; 0
     e7a:	88 0f       	add	r24, r24
     e7c:	99 1f       	adc	r25, r25
     e7e:	82 95       	swap	r24
     e80:	92 95       	swap	r25
     e82:	90 7f       	andi	r25, 0xF0	; 240
     e84:	98 27       	eor	r25, r24
     e86:	80 7f       	andi	r24, 0xF0	; 240
     e88:	98 27       	eor	r25, r24
     e8a:	80 93 a8 01 	sts	0x01A8, r24	; 0x8001a8 <ucDataBuffer+0x1>
     e8e:	8b 89       	ldd	r24, Y+19	; 0x13
     e90:	9c 89       	ldd	r25, Y+20	; 0x14
     e92:	fc 01       	movw	r30, r24
     e94:	82 81       	ldd	r24, Z+2	; 0x02
     e96:	93 81       	ldd	r25, Z+3	; 0x03
     e98:	a4 81       	ldd	r26, Z+4	; 0x04
     e9a:	b5 81       	ldd	r27, Z+5	; 0x05
     e9c:	68 94       	set
     e9e:	12 f8       	bld	r1, 2
     ea0:	b6 95       	lsr	r27
     ea2:	a7 95       	ror	r26
     ea4:	97 95       	ror	r25
     ea6:	87 95       	ror	r24
     ea8:	16 94       	lsr	r1
     eaa:	d1 f7       	brne	.-12     	; 0xea0 <MCP2515_Send_Message+0xe6>
     eac:	80 93 a7 01 	sts	0x01A7, r24	; 0x8001a7 <ucDataBuffer>
     eb0:	4d c0       	rjmp	.+154    	; 0xf4c <MCP2515_Send_Message+0x192>
     eb2:	8b 89       	ldd	r24, Y+19	; 0x13
     eb4:	9c 89       	ldd	r25, Y+20	; 0x14
     eb6:	fc 01       	movw	r30, r24
     eb8:	82 81       	ldd	r24, Z+2	; 0x02
     eba:	93 81       	ldd	r25, Z+3	; 0x03
     ebc:	a4 81       	ldd	r26, Z+4	; 0x04
     ebe:	b5 81       	ldd	r27, Z+5	; 0x05
     ec0:	8d 83       	std	Y+5, r24	; 0x05
     ec2:	9e 83       	std	Y+6, r25	; 0x06
     ec4:	af 83       	std	Y+7, r26	; 0x07
     ec6:	b8 87       	std	Y+8, r27	; 0x08
     ec8:	8d 81       	ldd	r24, Y+5	; 0x05
     eca:	80 93 aa 01 	sts	0x01AA, r24	; 0x8001aa <ucDataBuffer+0x3>
     ece:	8d 81       	ldd	r24, Y+5	; 0x05
     ed0:	9e 81       	ldd	r25, Y+6	; 0x06
     ed2:	af 81       	ldd	r26, Y+7	; 0x07
     ed4:	b8 85       	ldd	r27, Y+8	; 0x08
     ed6:	89 2f       	mov	r24, r25
     ed8:	9a 2f       	mov	r25, r26
     eda:	ab 2f       	mov	r26, r27
     edc:	bb 27       	eor	r27, r27
     ede:	8d 83       	std	Y+5, r24	; 0x05
     ee0:	9e 83       	std	Y+6, r25	; 0x06
     ee2:	af 83       	std	Y+7, r26	; 0x07
     ee4:	b8 87       	std	Y+8, r27	; 0x08
     ee6:	8d 81       	ldd	r24, Y+5	; 0x05
     ee8:	80 93 a9 01 	sts	0x01A9, r24	; 0x8001a9 <ucDataBuffer+0x2>
     eec:	8d 81       	ldd	r24, Y+5	; 0x05
     eee:	9e 81       	ldd	r25, Y+6	; 0x06
     ef0:	af 81       	ldd	r26, Y+7	; 0x07
     ef2:	b8 85       	ldd	r27, Y+8	; 0x08
     ef4:	89 2f       	mov	r24, r25
     ef6:	9a 2f       	mov	r25, r26
     ef8:	ab 2f       	mov	r26, r27
     efa:	bb 27       	eor	r27, r27
     efc:	8d 83       	std	Y+5, r24	; 0x05
     efe:	9e 83       	std	Y+6, r25	; 0x06
     f00:	af 83       	std	Y+7, r26	; 0x07
     f02:	b8 87       	std	Y+8, r27	; 0x08
     f04:	8d 81       	ldd	r24, Y+5	; 0x05
     f06:	28 2f       	mov	r18, r24
     f08:	23 70       	andi	r18, 0x03	; 3
     f0a:	8d 81       	ldd	r24, Y+5	; 0x05
     f0c:	88 2f       	mov	r24, r24
     f0e:	90 e0       	ldi	r25, 0x00	; 0
     f10:	8c 71       	andi	r24, 0x1C	; 28
     f12:	99 27       	eor	r25, r25
     f14:	88 0f       	add	r24, r24
     f16:	99 1f       	adc	r25, r25
     f18:	88 0f       	add	r24, r24
     f1a:	99 1f       	adc	r25, r25
     f1c:	88 0f       	add	r24, r24
     f1e:	99 1f       	adc	r25, r25
     f20:	28 2b       	or	r18, r24
     f22:	8b 89       	ldd	r24, Y+19	; 0x13
     f24:	9c 89       	ldd	r25, Y+20	; 0x14
     f26:	fc 01       	movw	r30, r24
     f28:	80 81       	ld	r24, Z
     f2a:	82 2b       	or	r24, r18
     f2c:	80 93 a8 01 	sts	0x01A8, r24	; 0x8001a8 <ucDataBuffer+0x1>
     f30:	8d 81       	ldd	r24, Y+5	; 0x05
     f32:	9e 81       	ldd	r25, Y+6	; 0x06
     f34:	af 81       	ldd	r26, Y+7	; 0x07
     f36:	b8 85       	ldd	r27, Y+8	; 0x08
     f38:	68 94       	set
     f3a:	14 f8       	bld	r1, 4
     f3c:	b6 95       	lsr	r27
     f3e:	a7 95       	ror	r26
     f40:	97 95       	ror	r25
     f42:	87 95       	ror	r24
     f44:	16 94       	lsr	r1
     f46:	d1 f7       	brne	.-12     	; 0xf3c <MCP2515_Send_Message+0x182>
     f48:	80 93 a7 01 	sts	0x01A7, r24	; 0x8001a7 <ucDataBuffer>
     f4c:	8b 89       	ldd	r24, Y+19	; 0x13
     f4e:	9c 89       	ldd	r25, Y+20	; 0x14
     f50:	fc 01       	movw	r30, r24
     f52:	86 81       	ldd	r24, Z+6	; 0x06
     f54:	89 87       	std	Y+9, r24	; 0x09
     f56:	8b 89       	ldd	r24, Y+19	; 0x13
     f58:	9c 89       	ldd	r25, Y+20	; 0x14
     f5a:	fc 01       	movw	r30, r24
     f5c:	91 81       	ldd	r25, Z+1	; 0x01
     f5e:	89 85       	ldd	r24, Y+9	; 0x09
     f60:	89 2b       	or	r24, r25
     f62:	80 93 ab 01 	sts	0x01AB, r24	; 0x8001ab <ucDataBuffer+0x4>
     f66:	1b 82       	std	Y+3, r1	; 0x03
     f68:	16 c0       	rjmp	.+44     	; 0xf96 <MCP2515_Send_Message+0x1dc>
     f6a:	8b 81       	ldd	r24, Y+3	; 0x03
     f6c:	88 2f       	mov	r24, r24
     f6e:	90 e0       	ldi	r25, 0x00	; 0
     f70:	05 96       	adiw	r24, 0x05	; 5
     f72:	2b 81       	ldd	r18, Y+3	; 0x03
     f74:	22 2f       	mov	r18, r18
     f76:	30 e0       	ldi	r19, 0x00	; 0
     f78:	4b 89       	ldd	r20, Y+19	; 0x13
     f7a:	5c 89       	ldd	r21, Y+20	; 0x14
     f7c:	24 0f       	add	r18, r20
     f7e:	35 1f       	adc	r19, r21
     f80:	29 5f       	subi	r18, 0xF9	; 249
     f82:	3f 4f       	sbci	r19, 0xFF	; 255
     f84:	f9 01       	movw	r30, r18
     f86:	20 81       	ld	r18, Z
     f88:	89 55       	subi	r24, 0x59	; 89
     f8a:	9e 4f       	sbci	r25, 0xFE	; 254
     f8c:	fc 01       	movw	r30, r24
     f8e:	20 83       	st	Z, r18
     f90:	8b 81       	ldd	r24, Y+3	; 0x03
     f92:	8f 5f       	subi	r24, 0xFF	; 255
     f94:	8b 83       	std	Y+3, r24	; 0x03
     f96:	9b 81       	ldd	r25, Y+3	; 0x03
     f98:	89 85       	ldd	r24, Y+9	; 0x09
     f9a:	98 17       	cp	r25, r24
     f9c:	30 f3       	brcs	.-52     	; 0xf6a <MCP2515_Send_Message+0x1b0>
     f9e:	89 85       	ldd	r24, Y+9	; 0x09
     fa0:	8b 5f       	subi	r24, 0xFB	; 251
     fa2:	89 87       	std	Y+9, r24	; 0x09
     fa4:	89 81       	ldd	r24, Y+1	; 0x01
     fa6:	88 2f       	mov	r24, r24
     fa8:	90 e0       	ldi	r25, 0x00	; 0
     faa:	9e 01       	movw	r18, r28
     fac:	26 5f       	subi	r18, 0xF6	; 246
     fae:	3f 4f       	sbci	r19, 0xFF	; 255
     fb0:	82 0f       	add	r24, r18
     fb2:	93 1f       	adc	r25, r19
     fb4:	fc 01       	movw	r30, r24
     fb6:	80 81       	ld	r24, Z
     fb8:	0f 2e       	mov	r0, r31
     fba:	f7 ea       	ldi	r31, 0xA7	; 167
     fbc:	ef 2e       	mov	r14, r31
     fbe:	f1 e0       	ldi	r31, 0x01	; 1
     fc0:	ff 2e       	mov	r15, r31
     fc2:	f0 2d       	mov	r31, r0
     fc4:	09 85       	ldd	r16, Y+9	; 0x09
     fc6:	28 2f       	mov	r18, r24
     fc8:	4d 85       	ldd	r20, Y+13	; 0x0d
     fca:	5e 85       	ldd	r21, Y+14	; 0x0e
     fcc:	6f 85       	ldd	r22, Y+15	; 0x0f
     fce:	78 89       	ldd	r23, Y+16	; 0x10
     fd0:	89 89       	ldd	r24, Y+17	; 0x11
     fd2:	9a 89       	ldd	r25, Y+18	; 0x12
     fd4:	a8 de       	rcall	.-688    	; 0xd26 <MCP2515_Load_TXBuffer>
     fd6:	10 92 a7 01 	sts	0x01A7, r1	; 0x8001a7 <ucDataBuffer>
     fda:	0f 2e       	mov	r0, r31
     fdc:	f7 ea       	ldi	r31, 0xA7	; 167
     fde:	ef 2e       	mov	r14, r31
     fe0:	f1 e0       	ldi	r31, 0x01	; 1
     fe2:	ff 2e       	mov	r15, r31
     fe4:	f0 2d       	mov	r31, r0
     fe6:	01 e0       	ldi	r16, 0x01	; 1
     fe8:	2b e2       	ldi	r18, 0x2B	; 43
     fea:	4d 85       	ldd	r20, Y+13	; 0x0d
     fec:	5e 85       	ldd	r21, Y+14	; 0x0e
     fee:	6f 85       	ldd	r22, Y+15	; 0x0f
     ff0:	78 89       	ldd	r23, Y+16	; 0x10
     ff2:	89 89       	ldd	r24, Y+17	; 0x11
     ff4:	9a 89       	ldd	r25, Y+18	; 0x12
     ff6:	5f dd       	rcall	.-1346   	; 0xab6 <MCP2515_Write_Reg>
     ff8:	29 81       	ldd	r18, Y+1	; 0x01
     ffa:	4d 85       	ldd	r20, Y+13	; 0x0d
     ffc:	5e 85       	ldd	r21, Y+14	; 0x0e
     ffe:	6f 85       	ldd	r22, Y+15	; 0x0f
    1000:	78 89       	ldd	r23, Y+16	; 0x10
    1002:	89 89       	ldd	r24, Y+17	; 0x11
    1004:	9a 89       	ldd	r25, Y+18	; 0x12
    1006:	0d d0       	rcall	.+26     	; 0x1022 <MCP2515_RequestToSend>
    1008:	80 e0       	ldi	r24, 0x00	; 0
    100a:	64 96       	adiw	r28, 0x14	; 20
    100c:	0f b6       	in	r0, 0x3f	; 63
    100e:	f8 94       	cli
    1010:	de bf       	out	0x3e, r29	; 62
    1012:	0f be       	out	0x3f, r0	; 63
    1014:	cd bf       	out	0x3d, r28	; 61
    1016:	df 91       	pop	r29
    1018:	cf 91       	pop	r28
    101a:	0f 91       	pop	r16
    101c:	ff 90       	pop	r15
    101e:	ef 90       	pop	r14
    1020:	08 95       	ret

00001022 <MCP2515_RequestToSend>:
    1022:	cf 93       	push	r28
    1024:	df 93       	push	r29
    1026:	cd b7       	in	r28, 0x3d	; 61
    1028:	de b7       	in	r29, 0x3e	; 62
    102a:	28 97       	sbiw	r28, 0x08	; 8
    102c:	0f b6       	in	r0, 0x3f	; 63
    102e:	f8 94       	cli
    1030:	de bf       	out	0x3e, r29	; 62
    1032:	0f be       	out	0x3f, r0	; 63
    1034:	cd bf       	out	0x3d, r28	; 61
    1036:	4a 83       	std	Y+2, r20	; 0x02
    1038:	5b 83       	std	Y+3, r21	; 0x03
    103a:	6c 83       	std	Y+4, r22	; 0x04
    103c:	7d 83       	std	Y+5, r23	; 0x05
    103e:	8e 83       	std	Y+6, r24	; 0x06
    1040:	9f 83       	std	Y+7, r25	; 0x07
    1042:	28 87       	std	Y+8, r18	; 0x08
    1044:	88 85       	ldd	r24, Y+8	; 0x08
    1046:	28 2f       	mov	r18, r24
    1048:	30 e0       	ldi	r19, 0x00	; 0
    104a:	81 e0       	ldi	r24, 0x01	; 1
    104c:	90 e0       	ldi	r25, 0x00	; 0
    104e:	02 c0       	rjmp	.+4      	; 0x1054 <MCP2515_RequestToSend+0x32>
    1050:	88 0f       	add	r24, r24
    1052:	99 1f       	adc	r25, r25
    1054:	2a 95       	dec	r18
    1056:	e2 f7       	brpl	.-8      	; 0x1050 <MCP2515_RequestToSend+0x2e>
    1058:	80 68       	ori	r24, 0x80	; 128
    105a:	89 83       	std	Y+1, r24	; 0x01
    105c:	4a 81       	ldd	r20, Y+2	; 0x02
    105e:	5b 81       	ldd	r21, Y+3	; 0x03
    1060:	6c 81       	ldd	r22, Y+4	; 0x04
    1062:	7d 81       	ldd	r23, Y+5	; 0x05
    1064:	8e 81       	ldd	r24, Y+6	; 0x06
    1066:	9f 81       	ldd	r25, Y+7	; 0x07
    1068:	a2 d2       	rcall	.+1348   	; 0x15ae <SPI_Master_Start>
    106a:	89 81       	ldd	r24, Y+1	; 0x01
    106c:	f7 d2       	rcall	.+1518   	; 0x165c <SPI_Master_Write>
    106e:	4a 81       	ldd	r20, Y+2	; 0x02
    1070:	5b 81       	ldd	r21, Y+3	; 0x03
    1072:	6c 81       	ldd	r22, Y+4	; 0x04
    1074:	7d 81       	ldd	r23, Y+5	; 0x05
    1076:	8e 81       	ldd	r24, Y+6	; 0x06
    1078:	9f 81       	ldd	r25, Y+7	; 0x07
    107a:	c5 d2       	rcall	.+1418   	; 0x1606 <SPI_Master_Stop>
    107c:	00 00       	nop
    107e:	28 96       	adiw	r28, 0x08	; 8
    1080:	0f b6       	in	r0, 0x3f	; 63
    1082:	f8 94       	cli
    1084:	de bf       	out	0x3e, r29	; 62
    1086:	0f be       	out	0x3f, r0	; 63
    1088:	cd bf       	out	0x3d, r28	; 61
    108a:	df 91       	pop	r29
    108c:	cf 91       	pop	r28
    108e:	08 95       	ret

00001090 <MCP2515_Read_RxStatus>:
    1090:	cf 93       	push	r28
    1092:	df 93       	push	r29
    1094:	cd b7       	in	r28, 0x3d	; 61
    1096:	de b7       	in	r29, 0x3e	; 62
    1098:	28 97       	sbiw	r28, 0x08	; 8
    109a:	0f b6       	in	r0, 0x3f	; 63
    109c:	f8 94       	cli
    109e:	de bf       	out	0x3e, r29	; 62
    10a0:	0f be       	out	0x3f, r0	; 63
    10a2:	cd bf       	out	0x3d, r28	; 61
    10a4:	4b 83       	std	Y+3, r20	; 0x03
    10a6:	5c 83       	std	Y+4, r21	; 0x04
    10a8:	6d 83       	std	Y+5, r22	; 0x05
    10aa:	7e 83       	std	Y+6, r23	; 0x06
    10ac:	8f 83       	std	Y+7, r24	; 0x07
    10ae:	98 87       	std	Y+8, r25	; 0x08
    10b0:	8f ef       	ldi	r24, 0xFF	; 255
    10b2:	89 83       	std	Y+1, r24	; 0x01
    10b4:	4b 81       	ldd	r20, Y+3	; 0x03
    10b6:	5c 81       	ldd	r21, Y+4	; 0x04
    10b8:	6d 81       	ldd	r22, Y+5	; 0x05
    10ba:	7e 81       	ldd	r23, Y+6	; 0x06
    10bc:	8f 81       	ldd	r24, Y+7	; 0x07
    10be:	98 85       	ldd	r25, Y+8	; 0x08
    10c0:	76 d2       	rcall	.+1260   	; 0x15ae <SPI_Master_Start>
    10c2:	80 eb       	ldi	r24, 0xB0	; 176
    10c4:	cb d2       	rcall	.+1430   	; 0x165c <SPI_Master_Write>
    10c6:	89 81       	ldd	r24, Y+1	; 0x01
    10c8:	c9 d2       	rcall	.+1426   	; 0x165c <SPI_Master_Write>
    10ca:	8a 83       	std	Y+2, r24	; 0x02
    10cc:	89 81       	ldd	r24, Y+1	; 0x01
    10ce:	c6 d2       	rcall	.+1420   	; 0x165c <SPI_Master_Write>
    10d0:	4b 81       	ldd	r20, Y+3	; 0x03
    10d2:	5c 81       	ldd	r21, Y+4	; 0x04
    10d4:	6d 81       	ldd	r22, Y+5	; 0x05
    10d6:	7e 81       	ldd	r23, Y+6	; 0x06
    10d8:	8f 81       	ldd	r24, Y+7	; 0x07
    10da:	98 85       	ldd	r25, Y+8	; 0x08
    10dc:	94 d2       	rcall	.+1320   	; 0x1606 <SPI_Master_Stop>
    10de:	8a 81       	ldd	r24, Y+2	; 0x02
    10e0:	28 96       	adiw	r28, 0x08	; 8
    10e2:	0f b6       	in	r0, 0x3f	; 63
    10e4:	f8 94       	cli
    10e6:	de bf       	out	0x3e, r29	; 62
    10e8:	0f be       	out	0x3f, r0	; 63
    10ea:	cd bf       	out	0x3d, r28	; 61
    10ec:	df 91       	pop	r29
    10ee:	cf 91       	pop	r28
    10f0:	08 95       	ret

000010f2 <MCP2515_Check_Message>:
    10f2:	ef 92       	push	r14
    10f4:	ff 92       	push	r15
    10f6:	0f 93       	push	r16
    10f8:	cf 93       	push	r28
    10fa:	df 93       	push	r29
    10fc:	cd b7       	in	r28, 0x3d	; 61
    10fe:	de b7       	in	r29, 0x3e	; 62
    1100:	64 97       	sbiw	r28, 0x14	; 20
    1102:	0f b6       	in	r0, 0x3f	; 63
    1104:	f8 94       	cli
    1106:	de bf       	out	0x3e, r29	; 62
    1108:	0f be       	out	0x3f, r0	; 63
    110a:	cd bf       	out	0x3d, r28	; 61
    110c:	4d 87       	std	Y+13, r20	; 0x0d
    110e:	5e 87       	std	Y+14, r21	; 0x0e
    1110:	6f 87       	std	Y+15, r22	; 0x0f
    1112:	78 8b       	std	Y+16, r23	; 0x10
    1114:	89 8b       	std	Y+17, r24	; 0x11
    1116:	9a 8b       	std	Y+18, r25	; 0x12
    1118:	3c 8b       	std	Y+20, r19	; 0x14
    111a:	2b 8b       	std	Y+19, r18	; 0x13
    111c:	19 86       	std	Y+9, r1	; 0x09
    111e:	82 e0       	ldi	r24, 0x02	; 2
    1120:	8a 87       	std	Y+10, r24	; 0x0a
    1122:	84 e0       	ldi	r24, 0x04	; 4
    1124:	8b 87       	std	Y+11, r24	; 0x0b
    1126:	86 e0       	ldi	r24, 0x06	; 6
    1128:	8c 87       	std	Y+12, r24	; 0x0c
    112a:	1b 82       	std	Y+3, r1	; 0x03
    112c:	1c 82       	std	Y+4, r1	; 0x04
    112e:	1d 82       	std	Y+5, r1	; 0x05
    1130:	1e 82       	std	Y+6, r1	; 0x06
    1132:	4d 85       	ldd	r20, Y+13	; 0x0d
    1134:	5e 85       	ldd	r21, Y+14	; 0x0e
    1136:	6f 85       	ldd	r22, Y+15	; 0x0f
    1138:	78 89       	ldd	r23, Y+16	; 0x10
    113a:	89 89       	ldd	r24, Y+17	; 0x11
    113c:	9a 89       	ldd	r25, Y+18	; 0x12
    113e:	a8 df       	rcall	.-176    	; 0x1090 <MCP2515_Read_RxStatus>
    1140:	8f 83       	std	Y+7, r24	; 0x07
    1142:	8f 81       	ldd	r24, Y+7	; 0x07
    1144:	88 2f       	mov	r24, r24
    1146:	90 e0       	ldi	r25, 0x00	; 0
    1148:	80 7c       	andi	r24, 0xC0	; 192
    114a:	99 27       	eor	r25, r25
    114c:	89 2b       	or	r24, r25
    114e:	11 f4       	brne	.+4      	; 0x1154 <MCP2515_Check_Message+0x62>
    1150:	80 e0       	ldi	r24, 0x00	; 0
    1152:	14 c1       	rjmp	.+552    	; 0x137c <MCP2515_Check_Message+0x28a>
    1154:	8f 81       	ldd	r24, Y+7	; 0x07
    1156:	88 2f       	mov	r24, r24
    1158:	90 e0       	ldi	r25, 0x00	; 0
    115a:	80 74       	andi	r24, 0x40	; 64
    115c:	99 27       	eor	r25, r25
    115e:	89 2b       	or	r24, r25
    1160:	11 f0       	breq	.+4      	; 0x1166 <MCP2515_Check_Message+0x74>
    1162:	19 82       	std	Y+1, r1	; 0x01
    1164:	05 c0       	rjmp	.+10     	; 0x1170 <MCP2515_Check_Message+0x7e>
    1166:	8f 81       	ldd	r24, Y+7	; 0x07
    1168:	88 23       	and	r24, r24
    116a:	14 f4       	brge	.+4      	; 0x1170 <MCP2515_Check_Message+0x7e>
    116c:	82 e0       	ldi	r24, 0x02	; 2
    116e:	89 83       	std	Y+1, r24	; 0x01
    1170:	89 81       	ldd	r24, Y+1	; 0x01
    1172:	88 2f       	mov	r24, r24
    1174:	90 e0       	ldi	r25, 0x00	; 0
    1176:	9e 01       	movw	r18, r28
    1178:	27 5f       	subi	r18, 0xF7	; 247
    117a:	3f 4f       	sbci	r19, 0xFF	; 255
    117c:	82 0f       	add	r24, r18
    117e:	93 1f       	adc	r25, r19
    1180:	fc 01       	movw	r30, r24
    1182:	80 81       	ld	r24, Z
    1184:	0f 2e       	mov	r0, r31
    1186:	fa e9       	ldi	r31, 0x9A	; 154
    1188:	ef 2e       	mov	r14, r31
    118a:	f1 e0       	ldi	r31, 0x01	; 1
    118c:	ff 2e       	mov	r15, r31
    118e:	f0 2d       	mov	r31, r0
    1190:	0d e0       	ldi	r16, 0x0D	; 13
    1192:	28 2f       	mov	r18, r24
    1194:	4d 85       	ldd	r20, Y+13	; 0x0d
    1196:	5e 85       	ldd	r21, Y+14	; 0x0e
    1198:	6f 85       	ldd	r22, Y+15	; 0x0f
    119a:	78 89       	ldd	r23, Y+16	; 0x10
    119c:	89 89       	ldd	r24, Y+17	; 0x11
    119e:	9a 89       	ldd	r25, Y+18	; 0x12
    11a0:	f9 d0       	rcall	.+498    	; 0x1394 <MCP2515_Read_RxBuffer>
    11a2:	80 91 9e 01 	lds	r24, 0x019E	; 0x80019e <ucRxDataBuffer+0x4>
    11a6:	8f 70       	andi	r24, 0x0F	; 15
    11a8:	88 87       	std	Y+8, r24	; 0x08
    11aa:	8b 89       	ldd	r24, Y+19	; 0x13
    11ac:	9c 89       	ldd	r25, Y+20	; 0x14
    11ae:	28 85       	ldd	r18, Y+8	; 0x08
    11b0:	fc 01       	movw	r30, r24
    11b2:	26 83       	std	Z+6, r18	; 0x06
    11b4:	1a 82       	std	Y+2, r1	; 0x02
    11b6:	16 c0       	rjmp	.+44     	; 0x11e4 <MCP2515_Check_Message+0xf2>
    11b8:	8a 81       	ldd	r24, Y+2	; 0x02
    11ba:	88 2f       	mov	r24, r24
    11bc:	90 e0       	ldi	r25, 0x00	; 0
    11be:	2a 81       	ldd	r18, Y+2	; 0x02
    11c0:	22 2f       	mov	r18, r18
    11c2:	30 e0       	ldi	r19, 0x00	; 0
    11c4:	2b 5f       	subi	r18, 0xFB	; 251
    11c6:	3f 4f       	sbci	r19, 0xFF	; 255
    11c8:	26 56       	subi	r18, 0x66	; 102
    11ca:	3e 4f       	sbci	r19, 0xFE	; 254
    11cc:	f9 01       	movw	r30, r18
    11ce:	40 81       	ld	r20, Z
    11d0:	2b 89       	ldd	r18, Y+19	; 0x13
    11d2:	3c 89       	ldd	r19, Y+20	; 0x14
    11d4:	82 0f       	add	r24, r18
    11d6:	93 1f       	adc	r25, r19
    11d8:	07 96       	adiw	r24, 0x07	; 7
    11da:	fc 01       	movw	r30, r24
    11dc:	40 83       	st	Z, r20
    11de:	8a 81       	ldd	r24, Y+2	; 0x02
    11e0:	8f 5f       	subi	r24, 0xFF	; 255
    11e2:	8a 83       	std	Y+2, r24	; 0x02
    11e4:	9a 81       	ldd	r25, Y+2	; 0x02
    11e6:	88 85       	ldd	r24, Y+8	; 0x08
    11e8:	98 17       	cp	r25, r24
    11ea:	30 f3       	brcs	.-52     	; 0x11b8 <MCP2515_Check_Message+0xc6>
    11ec:	80 91 9a 01 	lds	r24, 0x019A	; 0x80019a <ucRxDataBuffer>
    11f0:	88 2f       	mov	r24, r24
    11f2:	90 e0       	ldi	r25, 0x00	; 0
    11f4:	a0 e0       	ldi	r26, 0x00	; 0
    11f6:	b0 e0       	ldi	r27, 0x00	; 0
    11f8:	8b 83       	std	Y+3, r24	; 0x03
    11fa:	9c 83       	std	Y+4, r25	; 0x04
    11fc:	ad 83       	std	Y+5, r26	; 0x05
    11fe:	be 83       	std	Y+6, r27	; 0x06
    1200:	8b 81       	ldd	r24, Y+3	; 0x03
    1202:	9c 81       	ldd	r25, Y+4	; 0x04
    1204:	ad 81       	ldd	r26, Y+5	; 0x05
    1206:	be 81       	ldd	r27, Y+6	; 0x06
    1208:	88 0f       	add	r24, r24
    120a:	99 1f       	adc	r25, r25
    120c:	aa 1f       	adc	r26, r26
    120e:	bb 1f       	adc	r27, r27
    1210:	88 0f       	add	r24, r24
    1212:	99 1f       	adc	r25, r25
    1214:	aa 1f       	adc	r26, r26
    1216:	bb 1f       	adc	r27, r27
    1218:	88 0f       	add	r24, r24
    121a:	99 1f       	adc	r25, r25
    121c:	aa 1f       	adc	r26, r26
    121e:	bb 1f       	adc	r27, r27
    1220:	8b 83       	std	Y+3, r24	; 0x03
    1222:	9c 83       	std	Y+4, r25	; 0x04
    1224:	ad 83       	std	Y+5, r26	; 0x05
    1226:	be 83       	std	Y+6, r27	; 0x06
    1228:	80 91 9b 01 	lds	r24, 0x019B	; 0x80019b <ucRxDataBuffer+0x1>
    122c:	82 95       	swap	r24
    122e:	86 95       	lsr	r24
    1230:	87 70       	andi	r24, 0x07	; 7
    1232:	88 2f       	mov	r24, r24
    1234:	90 e0       	ldi	r25, 0x00	; 0
    1236:	a0 e0       	ldi	r26, 0x00	; 0
    1238:	b0 e0       	ldi	r27, 0x00	; 0
    123a:	2b 81       	ldd	r18, Y+3	; 0x03
    123c:	3c 81       	ldd	r19, Y+4	; 0x04
    123e:	4d 81       	ldd	r20, Y+5	; 0x05
    1240:	5e 81       	ldd	r21, Y+6	; 0x06
    1242:	82 2b       	or	r24, r18
    1244:	93 2b       	or	r25, r19
    1246:	a4 2b       	or	r26, r20
    1248:	b5 2b       	or	r27, r21
    124a:	8b 83       	std	Y+3, r24	; 0x03
    124c:	9c 83       	std	Y+4, r25	; 0x04
    124e:	ad 83       	std	Y+5, r26	; 0x05
    1250:	be 83       	std	Y+6, r27	; 0x06
    1252:	80 91 9b 01 	lds	r24, 0x019B	; 0x80019b <ucRxDataBuffer+0x1>
    1256:	88 2f       	mov	r24, r24
    1258:	90 e0       	ldi	r25, 0x00	; 0
    125a:	88 70       	andi	r24, 0x08	; 8
    125c:	99 27       	eor	r25, r25
    125e:	89 2b       	or	r24, r25
    1260:	e9 f4       	brne	.+58     	; 0x129c <MCP2515_Check_Message+0x1aa>
    1262:	8b 89       	ldd	r24, Y+19	; 0x13
    1264:	9c 89       	ldd	r25, Y+20	; 0x14
    1266:	fc 01       	movw	r30, r24
    1268:	10 82       	st	Z, r1
    126a:	80 91 9b 01 	lds	r24, 0x019B	; 0x80019b <ucRxDataBuffer+0x1>
    126e:	88 2f       	mov	r24, r24
    1270:	90 e0       	ldi	r25, 0x00	; 0
    1272:	80 71       	andi	r24, 0x10	; 16
    1274:	99 27       	eor	r25, r25
    1276:	89 2b       	or	r24, r25
    1278:	29 f0       	breq	.+10     	; 0x1284 <MCP2515_Check_Message+0x192>
    127a:	8b 89       	ldd	r24, Y+19	; 0x13
    127c:	9c 89       	ldd	r25, Y+20	; 0x14
    127e:	20 e4       	ldi	r18, 0x40	; 64
    1280:	fc 01       	movw	r30, r24
    1282:	21 83       	std	Z+1, r18	; 0x01
    1284:	2b 89       	ldd	r18, Y+19	; 0x13
    1286:	3c 89       	ldd	r19, Y+20	; 0x14
    1288:	8b 81       	ldd	r24, Y+3	; 0x03
    128a:	9c 81       	ldd	r25, Y+4	; 0x04
    128c:	ad 81       	ldd	r26, Y+5	; 0x05
    128e:	be 81       	ldd	r27, Y+6	; 0x06
    1290:	f9 01       	movw	r30, r18
    1292:	82 83       	std	Z+2, r24	; 0x02
    1294:	93 83       	std	Z+3, r25	; 0x03
    1296:	a4 83       	std	Z+4, r26	; 0x04
    1298:	b5 83       	std	Z+5, r27	; 0x05
    129a:	6f c0       	rjmp	.+222    	; 0x137a <MCP2515_Check_Message+0x288>
    129c:	8b 89       	ldd	r24, Y+19	; 0x13
    129e:	9c 89       	ldd	r25, Y+20	; 0x14
    12a0:	28 e0       	ldi	r18, 0x08	; 8
    12a2:	fc 01       	movw	r30, r24
    12a4:	20 83       	st	Z, r18
    12a6:	80 91 9e 01 	lds	r24, 0x019E	; 0x80019e <ucRxDataBuffer+0x4>
    12aa:	88 2f       	mov	r24, r24
    12ac:	90 e0       	ldi	r25, 0x00	; 0
    12ae:	80 74       	andi	r24, 0x40	; 64
    12b0:	99 27       	eor	r25, r25
    12b2:	89 2b       	or	r24, r25
    12b4:	29 f0       	breq	.+10     	; 0x12c0 <MCP2515_Check_Message+0x1ce>
    12b6:	8b 89       	ldd	r24, Y+19	; 0x13
    12b8:	9c 89       	ldd	r25, Y+20	; 0x14
    12ba:	20 e4       	ldi	r18, 0x40	; 64
    12bc:	fc 01       	movw	r30, r24
    12be:	21 83       	std	Z+1, r18	; 0x01
    12c0:	8b 81       	ldd	r24, Y+3	; 0x03
    12c2:	9c 81       	ldd	r25, Y+4	; 0x04
    12c4:	ad 81       	ldd	r26, Y+5	; 0x05
    12c6:	be 81       	ldd	r27, Y+6	; 0x06
    12c8:	88 0f       	add	r24, r24
    12ca:	99 1f       	adc	r25, r25
    12cc:	aa 1f       	adc	r26, r26
    12ce:	bb 1f       	adc	r27, r27
    12d0:	88 0f       	add	r24, r24
    12d2:	99 1f       	adc	r25, r25
    12d4:	aa 1f       	adc	r26, r26
    12d6:	bb 1f       	adc	r27, r27
    12d8:	8b 83       	std	Y+3, r24	; 0x03
    12da:	9c 83       	std	Y+4, r25	; 0x04
    12dc:	ad 83       	std	Y+5, r26	; 0x05
    12de:	be 83       	std	Y+6, r27	; 0x06
    12e0:	80 91 9b 01 	lds	r24, 0x019B	; 0x80019b <ucRxDataBuffer+0x1>
    12e4:	88 2f       	mov	r24, r24
    12e6:	90 e0       	ldi	r25, 0x00	; 0
    12e8:	a0 e0       	ldi	r26, 0x00	; 0
    12ea:	b0 e0       	ldi	r27, 0x00	; 0
    12ec:	83 70       	andi	r24, 0x03	; 3
    12ee:	99 27       	eor	r25, r25
    12f0:	aa 27       	eor	r26, r26
    12f2:	bb 27       	eor	r27, r27
    12f4:	2b 81       	ldd	r18, Y+3	; 0x03
    12f6:	3c 81       	ldd	r19, Y+4	; 0x04
    12f8:	4d 81       	ldd	r20, Y+5	; 0x05
    12fa:	5e 81       	ldd	r21, Y+6	; 0x06
    12fc:	82 2b       	or	r24, r18
    12fe:	93 2b       	or	r25, r19
    1300:	a4 2b       	or	r26, r20
    1302:	b5 2b       	or	r27, r21
    1304:	8b 83       	std	Y+3, r24	; 0x03
    1306:	9c 83       	std	Y+4, r25	; 0x04
    1308:	ad 83       	std	Y+5, r26	; 0x05
    130a:	be 83       	std	Y+6, r27	; 0x06
    130c:	8b 81       	ldd	r24, Y+3	; 0x03
    130e:	9c 81       	ldd	r25, Y+4	; 0x04
    1310:	ad 81       	ldd	r26, Y+5	; 0x05
    1312:	be 81       	ldd	r27, Y+6	; 0x06
    1314:	22 27       	eor	r18, r18
    1316:	38 2f       	mov	r19, r24
    1318:	49 2f       	mov	r20, r25
    131a:	5a 2f       	mov	r21, r26
    131c:	80 91 9c 01 	lds	r24, 0x019C	; 0x80019c <ucRxDataBuffer+0x2>
    1320:	88 2f       	mov	r24, r24
    1322:	90 e0       	ldi	r25, 0x00	; 0
    1324:	a0 e0       	ldi	r26, 0x00	; 0
    1326:	b0 e0       	ldi	r27, 0x00	; 0
    1328:	82 2b       	or	r24, r18
    132a:	93 2b       	or	r25, r19
    132c:	a4 2b       	or	r26, r20
    132e:	b5 2b       	or	r27, r21
    1330:	8b 83       	std	Y+3, r24	; 0x03
    1332:	9c 83       	std	Y+4, r25	; 0x04
    1334:	ad 83       	std	Y+5, r26	; 0x05
    1336:	be 83       	std	Y+6, r27	; 0x06
    1338:	8b 81       	ldd	r24, Y+3	; 0x03
    133a:	9c 81       	ldd	r25, Y+4	; 0x04
    133c:	ad 81       	ldd	r26, Y+5	; 0x05
    133e:	be 81       	ldd	r27, Y+6	; 0x06
    1340:	22 27       	eor	r18, r18
    1342:	38 2f       	mov	r19, r24
    1344:	49 2f       	mov	r20, r25
    1346:	5a 2f       	mov	r21, r26
    1348:	80 91 9d 01 	lds	r24, 0x019D	; 0x80019d <ucRxDataBuffer+0x3>
    134c:	88 2f       	mov	r24, r24
    134e:	90 e0       	ldi	r25, 0x00	; 0
    1350:	a0 e0       	ldi	r26, 0x00	; 0
    1352:	b0 e0       	ldi	r27, 0x00	; 0
    1354:	82 2b       	or	r24, r18
    1356:	93 2b       	or	r25, r19
    1358:	a4 2b       	or	r26, r20
    135a:	b5 2b       	or	r27, r21
    135c:	8b 83       	std	Y+3, r24	; 0x03
    135e:	9c 83       	std	Y+4, r25	; 0x04
    1360:	ad 83       	std	Y+5, r26	; 0x05
    1362:	be 83       	std	Y+6, r27	; 0x06
    1364:	2b 89       	ldd	r18, Y+19	; 0x13
    1366:	3c 89       	ldd	r19, Y+20	; 0x14
    1368:	8b 81       	ldd	r24, Y+3	; 0x03
    136a:	9c 81       	ldd	r25, Y+4	; 0x04
    136c:	ad 81       	ldd	r26, Y+5	; 0x05
    136e:	be 81       	ldd	r27, Y+6	; 0x06
    1370:	f9 01       	movw	r30, r18
    1372:	82 83       	std	Z+2, r24	; 0x02
    1374:	93 83       	std	Z+3, r25	; 0x03
    1376:	a4 83       	std	Z+4, r26	; 0x04
    1378:	b5 83       	std	Z+5, r27	; 0x05
    137a:	81 e0       	ldi	r24, 0x01	; 1
    137c:	64 96       	adiw	r28, 0x14	; 20
    137e:	0f b6       	in	r0, 0x3f	; 63
    1380:	f8 94       	cli
    1382:	de bf       	out	0x3e, r29	; 62
    1384:	0f be       	out	0x3f, r0	; 63
    1386:	cd bf       	out	0x3d, r28	; 61
    1388:	df 91       	pop	r29
    138a:	cf 91       	pop	r28
    138c:	0f 91       	pop	r16
    138e:	ff 90       	pop	r15
    1390:	ef 90       	pop	r14
    1392:	08 95       	ret

00001394 <MCP2515_Read_RxBuffer>:
    1394:	ef 92       	push	r14
    1396:	ff 92       	push	r15
    1398:	0f 93       	push	r16
    139a:	1f 93       	push	r17
    139c:	cf 93       	push	r28
    139e:	df 93       	push	r29
    13a0:	cd b7       	in	r28, 0x3d	; 61
    13a2:	de b7       	in	r29, 0x3e	; 62
    13a4:	2c 97       	sbiw	r28, 0x0c	; 12
    13a6:	0f b6       	in	r0, 0x3f	; 63
    13a8:	f8 94       	cli
    13aa:	de bf       	out	0x3e, r29	; 62
    13ac:	0f be       	out	0x3f, r0	; 63
    13ae:	cd bf       	out	0x3d, r28	; 61
    13b0:	4b 83       	std	Y+3, r20	; 0x03
    13b2:	5c 83       	std	Y+4, r21	; 0x04
    13b4:	6d 83       	std	Y+5, r22	; 0x05
    13b6:	7e 83       	std	Y+6, r23	; 0x06
    13b8:	8f 83       	std	Y+7, r24	; 0x07
    13ba:	98 87       	std	Y+8, r25	; 0x08
    13bc:	29 87       	std	Y+9, r18	; 0x09
    13be:	0a 87       	std	Y+10, r16	; 0x0a
    13c0:	fc 86       	std	Y+12, r15	; 0x0c
    13c2:	eb 86       	std	Y+11, r14	; 0x0b
    13c4:	89 85       	ldd	r24, Y+9	; 0x09
    13c6:	80 69       	ori	r24, 0x90	; 144
    13c8:	8a 83       	std	Y+2, r24	; 0x02
    13ca:	4b 81       	ldd	r20, Y+3	; 0x03
    13cc:	5c 81       	ldd	r21, Y+4	; 0x04
    13ce:	6d 81       	ldd	r22, Y+5	; 0x05
    13d0:	7e 81       	ldd	r23, Y+6	; 0x06
    13d2:	8f 81       	ldd	r24, Y+7	; 0x07
    13d4:	98 85       	ldd	r25, Y+8	; 0x08
    13d6:	eb d0       	rcall	.+470    	; 0x15ae <SPI_Master_Start>
    13d8:	8a 81       	ldd	r24, Y+2	; 0x02
    13da:	40 d1       	rcall	.+640    	; 0x165c <SPI_Master_Write>
    13dc:	19 82       	std	Y+1, r1	; 0x01
    13de:	0f c0       	rjmp	.+30     	; 0x13fe <MCP2515_Read_RxBuffer+0x6a>
    13e0:	89 81       	ldd	r24, Y+1	; 0x01
    13e2:	88 2f       	mov	r24, r24
    13e4:	90 e0       	ldi	r25, 0x00	; 0
    13e6:	2b 85       	ldd	r18, Y+11	; 0x0b
    13e8:	3c 85       	ldd	r19, Y+12	; 0x0c
    13ea:	89 01       	movw	r16, r18
    13ec:	08 0f       	add	r16, r24
    13ee:	19 1f       	adc	r17, r25
    13f0:	8f ef       	ldi	r24, 0xFF	; 255
    13f2:	34 d1       	rcall	.+616    	; 0x165c <SPI_Master_Write>
    13f4:	f8 01       	movw	r30, r16
    13f6:	80 83       	st	Z, r24
    13f8:	89 81       	ldd	r24, Y+1	; 0x01
    13fa:	8f 5f       	subi	r24, 0xFF	; 255
    13fc:	89 83       	std	Y+1, r24	; 0x01
    13fe:	99 81       	ldd	r25, Y+1	; 0x01
    1400:	8a 85       	ldd	r24, Y+10	; 0x0a
    1402:	98 17       	cp	r25, r24
    1404:	68 f3       	brcs	.-38     	; 0x13e0 <MCP2515_Read_RxBuffer+0x4c>
    1406:	4b 81       	ldd	r20, Y+3	; 0x03
    1408:	5c 81       	ldd	r21, Y+4	; 0x04
    140a:	6d 81       	ldd	r22, Y+5	; 0x05
    140c:	7e 81       	ldd	r23, Y+6	; 0x06
    140e:	8f 81       	ldd	r24, Y+7	; 0x07
    1410:	98 85       	ldd	r25, Y+8	; 0x08
    1412:	f9 d0       	rcall	.+498    	; 0x1606 <SPI_Master_Stop>
    1414:	00 00       	nop
    1416:	2c 96       	adiw	r28, 0x0c	; 12
    1418:	0f b6       	in	r0, 0x3f	; 63
    141a:	f8 94       	cli
    141c:	de bf       	out	0x3e, r29	; 62
    141e:	0f be       	out	0x3f, r0	; 63
    1420:	cd bf       	out	0x3d, r28	; 61
    1422:	df 91       	pop	r29
    1424:	cf 91       	pop	r28
    1426:	1f 91       	pop	r17
    1428:	0f 91       	pop	r16
    142a:	ff 90       	pop	r15
    142c:	ef 90       	pop	r14
    142e:	08 95       	ret

00001430 <Servo_Init>:
    1430:	cf 93       	push	r28
    1432:	df 93       	push	r29
    1434:	cd b7       	in	r28, 0x3d	; 61
    1436:	de b7       	in	r29, 0x3e	; 62
    1438:	8a e2       	ldi	r24, 0x2A	; 42
    143a:	90 e0       	ldi	r25, 0x00	; 0
    143c:	2a e2       	ldi	r18, 0x2A	; 42
    143e:	30 e0       	ldi	r19, 0x00	; 0
    1440:	f9 01       	movw	r30, r18
    1442:	20 81       	ld	r18, Z
    1444:	20 64       	ori	r18, 0x40	; 64
    1446:	fc 01       	movw	r30, r24
    1448:	20 83       	st	Z, r18
    144a:	84 e4       	ldi	r24, 0x44	; 68
    144c:	90 e0       	ldi	r25, 0x00	; 0
    144e:	23 e8       	ldi	r18, 0x83	; 131
    1450:	fc 01       	movw	r30, r24
    1452:	20 83       	st	Z, r18
    1454:	85 e4       	ldi	r24, 0x45	; 69
    1456:	90 e0       	ldi	r25, 0x00	; 0
    1458:	25 e0       	ldi	r18, 0x05	; 5
    145a:	fc 01       	movw	r30, r24
    145c:	20 83       	st	Z, r18
    145e:	87 e4       	ldi	r24, 0x47	; 71
    1460:	90 e0       	ldi	r25, 0x00	; 0
    1462:	20 91 32 01 	lds	r18, 0x0132	; 0x800132 <ucServoPosition>
    1466:	fc 01       	movw	r30, r24
    1468:	20 83       	st	Z, r18
    146a:	00 00       	nop
    146c:	df 91       	pop	r29
    146e:	cf 91       	pop	r28
    1470:	08 95       	ret

00001472 <Servo_Step>:
    1472:	cf 93       	push	r28
    1474:	df 93       	push	r29
    1476:	1f 92       	push	r1
    1478:	cd b7       	in	r28, 0x3d	; 61
    147a:	de b7       	in	r29, 0x3e	; 62
    147c:	89 83       	std	Y+1, r24	; 0x01
    147e:	87 e4       	ldi	r24, 0x47	; 71
    1480:	90 e0       	ldi	r25, 0x00	; 0
    1482:	29 81       	ldd	r18, Y+1	; 0x01
    1484:	22 2f       	mov	r18, r18
    1486:	30 e0       	ldi	r19, 0x00	; 0
    1488:	2e 5c       	subi	r18, 0xCE	; 206
    148a:	3e 4f       	sbci	r19, 0xFE	; 254
    148c:	f9 01       	movw	r30, r18
    148e:	20 81       	ld	r18, Z
    1490:	fc 01       	movw	r30, r24
    1492:	20 83       	st	Z, r18
    1494:	00 00       	nop
    1496:	0f 90       	pop	r0
    1498:	df 91       	pop	r29
    149a:	cf 91       	pop	r28
    149c:	08 95       	ret

0000149e <SPI_Master_Init>:
    149e:	cf 93       	push	r28
    14a0:	df 93       	push	r29
    14a2:	00 d0       	rcall	.+0      	; 0x14a4 <SPI_Master_Init+0x6>
    14a4:	00 d0       	rcall	.+0      	; 0x14a6 <SPI_Master_Init+0x8>
    14a6:	cd b7       	in	r28, 0x3d	; 61
    14a8:	de b7       	in	r29, 0x3e	; 62
    14aa:	89 83       	std	Y+1, r24	; 0x01
    14ac:	6a 83       	std	Y+2, r22	; 0x02
    14ae:	4b 83       	std	Y+3, r20	; 0x03
    14b0:	2c 83       	std	Y+4, r18	; 0x04
    14b2:	84 e2       	ldi	r24, 0x24	; 36
    14b4:	90 e0       	ldi	r25, 0x00	; 0
    14b6:	24 e2       	ldi	r18, 0x24	; 36
    14b8:	30 e0       	ldi	r19, 0x00	; 0
    14ba:	f9 01       	movw	r30, r18
    14bc:	20 81       	ld	r18, Z
    14be:	28 60       	ori	r18, 0x08	; 8
    14c0:	fc 01       	movw	r30, r24
    14c2:	20 83       	st	Z, r18
    14c4:	84 e2       	ldi	r24, 0x24	; 36
    14c6:	90 e0       	ldi	r25, 0x00	; 0
    14c8:	24 e2       	ldi	r18, 0x24	; 36
    14ca:	30 e0       	ldi	r19, 0x00	; 0
    14cc:	f9 01       	movw	r30, r18
    14ce:	20 81       	ld	r18, Z
    14d0:	2f 7e       	andi	r18, 0xEF	; 239
    14d2:	fc 01       	movw	r30, r24
    14d4:	20 83       	st	Z, r18
    14d6:	84 e2       	ldi	r24, 0x24	; 36
    14d8:	90 e0       	ldi	r25, 0x00	; 0
    14da:	24 e2       	ldi	r18, 0x24	; 36
    14dc:	30 e0       	ldi	r19, 0x00	; 0
    14de:	f9 01       	movw	r30, r18
    14e0:	20 81       	ld	r18, Z
    14e2:	20 62       	ori	r18, 0x20	; 32
    14e4:	fc 01       	movw	r30, r24
    14e6:	20 83       	st	Z, r18
    14e8:	8c e4       	ldi	r24, 0x4C	; 76
    14ea:	90 e0       	ldi	r25, 0x00	; 0
    14ec:	39 81       	ldd	r19, Y+1	; 0x01
    14ee:	2a 81       	ldd	r18, Y+2	; 0x02
    14f0:	43 2f       	mov	r20, r19
    14f2:	42 2b       	or	r20, r18
    14f4:	2b 81       	ldd	r18, Y+3	; 0x03
    14f6:	22 2f       	mov	r18, r18
    14f8:	30 e0       	ldi	r19, 0x00	; 0
    14fa:	22 0f       	add	r18, r18
    14fc:	33 1f       	adc	r19, r19
    14fe:	22 0f       	add	r18, r18
    1500:	33 1f       	adc	r19, r19
    1502:	34 2f       	mov	r19, r20
    1504:	32 2b       	or	r19, r18
    1506:	2c 81       	ldd	r18, Y+4	; 0x04
    1508:	23 70       	andi	r18, 0x03	; 3
    150a:	23 2b       	or	r18, r19
    150c:	20 65       	ori	r18, 0x50	; 80
    150e:	fc 01       	movw	r30, r24
    1510:	20 83       	st	Z, r18
    1512:	8d e4       	ldi	r24, 0x4D	; 77
    1514:	90 e0       	ldi	r25, 0x00	; 0
    1516:	2c 81       	ldd	r18, Y+4	; 0x04
    1518:	26 95       	lsr	r18
    151a:	26 95       	lsr	r18
    151c:	fc 01       	movw	r30, r24
    151e:	20 83       	st	Z, r18
    1520:	00 00       	nop
    1522:	0f 90       	pop	r0
    1524:	0f 90       	pop	r0
    1526:	0f 90       	pop	r0
    1528:	0f 90       	pop	r0
    152a:	df 91       	pop	r29
    152c:	cf 91       	pop	r28
    152e:	08 95       	ret

00001530 <SPI_Master_SlaveSelectInit>:
    1530:	cf 93       	push	r28
    1532:	df 93       	push	r29
    1534:	00 d0       	rcall	.+0      	; 0x1536 <SPI_Master_SlaveSelectInit+0x6>
    1536:	00 d0       	rcall	.+0      	; 0x1538 <SPI_Master_SlaveSelectInit+0x8>
    1538:	00 d0       	rcall	.+0      	; 0x153a <SPI_Master_SlaveSelectInit+0xa>
    153a:	cd b7       	in	r28, 0x3d	; 61
    153c:	de b7       	in	r29, 0x3e	; 62
    153e:	49 83       	std	Y+1, r20	; 0x01
    1540:	5a 83       	std	Y+2, r21	; 0x02
    1542:	6b 83       	std	Y+3, r22	; 0x03
    1544:	7c 83       	std	Y+4, r23	; 0x04
    1546:	8d 83       	std	Y+5, r24	; 0x05
    1548:	9e 83       	std	Y+6, r25	; 0x06
    154a:	89 81       	ldd	r24, Y+1	; 0x01
    154c:	9a 81       	ldd	r25, Y+2	; 0x02
    154e:	29 81       	ldd	r18, Y+1	; 0x01
    1550:	3a 81       	ldd	r19, Y+2	; 0x02
    1552:	f9 01       	movw	r30, r18
    1554:	20 81       	ld	r18, Z
    1556:	62 2f       	mov	r22, r18
    1558:	2d 81       	ldd	r18, Y+5	; 0x05
    155a:	42 2f       	mov	r20, r18
    155c:	50 e0       	ldi	r21, 0x00	; 0
    155e:	21 e0       	ldi	r18, 0x01	; 1
    1560:	30 e0       	ldi	r19, 0x00	; 0
    1562:	02 c0       	rjmp	.+4      	; 0x1568 <SPI_Master_SlaveSelectInit+0x38>
    1564:	22 0f       	add	r18, r18
    1566:	33 1f       	adc	r19, r19
    1568:	4a 95       	dec	r20
    156a:	e2 f7       	brpl	.-8      	; 0x1564 <SPI_Master_SlaveSelectInit+0x34>
    156c:	26 2b       	or	r18, r22
    156e:	fc 01       	movw	r30, r24
    1570:	20 83       	st	Z, r18
    1572:	8b 81       	ldd	r24, Y+3	; 0x03
    1574:	9c 81       	ldd	r25, Y+4	; 0x04
    1576:	2b 81       	ldd	r18, Y+3	; 0x03
    1578:	3c 81       	ldd	r19, Y+4	; 0x04
    157a:	f9 01       	movw	r30, r18
    157c:	20 81       	ld	r18, Z
    157e:	62 2f       	mov	r22, r18
    1580:	2d 81       	ldd	r18, Y+5	; 0x05
    1582:	42 2f       	mov	r20, r18
    1584:	50 e0       	ldi	r21, 0x00	; 0
    1586:	21 e0       	ldi	r18, 0x01	; 1
    1588:	30 e0       	ldi	r19, 0x00	; 0
    158a:	02 c0       	rjmp	.+4      	; 0x1590 <SPI_Master_SlaveSelectInit+0x60>
    158c:	22 0f       	add	r18, r18
    158e:	33 1f       	adc	r19, r19
    1590:	4a 95       	dec	r20
    1592:	e2 f7       	brpl	.-8      	; 0x158c <SPI_Master_SlaveSelectInit+0x5c>
    1594:	26 2b       	or	r18, r22
    1596:	fc 01       	movw	r30, r24
    1598:	20 83       	st	Z, r18
    159a:	00 00       	nop
    159c:	26 96       	adiw	r28, 0x06	; 6
    159e:	0f b6       	in	r0, 0x3f	; 63
    15a0:	f8 94       	cli
    15a2:	de bf       	out	0x3e, r29	; 62
    15a4:	0f be       	out	0x3f, r0	; 63
    15a6:	cd bf       	out	0x3d, r28	; 61
    15a8:	df 91       	pop	r29
    15aa:	cf 91       	pop	r28
    15ac:	08 95       	ret

000015ae <SPI_Master_Start>:
    15ae:	cf 93       	push	r28
    15b0:	df 93       	push	r29
    15b2:	00 d0       	rcall	.+0      	; 0x15b4 <SPI_Master_Start+0x6>
    15b4:	00 d0       	rcall	.+0      	; 0x15b6 <SPI_Master_Start+0x8>
    15b6:	00 d0       	rcall	.+0      	; 0x15b8 <SPI_Master_Start+0xa>
    15b8:	cd b7       	in	r28, 0x3d	; 61
    15ba:	de b7       	in	r29, 0x3e	; 62
    15bc:	49 83       	std	Y+1, r20	; 0x01
    15be:	5a 83       	std	Y+2, r21	; 0x02
    15c0:	6b 83       	std	Y+3, r22	; 0x03
    15c2:	7c 83       	std	Y+4, r23	; 0x04
    15c4:	8d 83       	std	Y+5, r24	; 0x05
    15c6:	9e 83       	std	Y+6, r25	; 0x06
    15c8:	8b 81       	ldd	r24, Y+3	; 0x03
    15ca:	9c 81       	ldd	r25, Y+4	; 0x04
    15cc:	2b 81       	ldd	r18, Y+3	; 0x03
    15ce:	3c 81       	ldd	r19, Y+4	; 0x04
    15d0:	f9 01       	movw	r30, r18
    15d2:	20 81       	ld	r18, Z
    15d4:	62 2f       	mov	r22, r18
    15d6:	2d 81       	ldd	r18, Y+5	; 0x05
    15d8:	42 2f       	mov	r20, r18
    15da:	50 e0       	ldi	r21, 0x00	; 0
    15dc:	21 e0       	ldi	r18, 0x01	; 1
    15de:	30 e0       	ldi	r19, 0x00	; 0
    15e0:	02 c0       	rjmp	.+4      	; 0x15e6 <SPI_Master_Start+0x38>
    15e2:	22 0f       	add	r18, r18
    15e4:	33 1f       	adc	r19, r19
    15e6:	4a 95       	dec	r20
    15e8:	e2 f7       	brpl	.-8      	; 0x15e2 <SPI_Master_Start+0x34>
    15ea:	20 95       	com	r18
    15ec:	26 23       	and	r18, r22
    15ee:	fc 01       	movw	r30, r24
    15f0:	20 83       	st	Z, r18
    15f2:	00 00       	nop
    15f4:	26 96       	adiw	r28, 0x06	; 6
    15f6:	0f b6       	in	r0, 0x3f	; 63
    15f8:	f8 94       	cli
    15fa:	de bf       	out	0x3e, r29	; 62
    15fc:	0f be       	out	0x3f, r0	; 63
    15fe:	cd bf       	out	0x3d, r28	; 61
    1600:	df 91       	pop	r29
    1602:	cf 91       	pop	r28
    1604:	08 95       	ret

00001606 <SPI_Master_Stop>:
    1606:	cf 93       	push	r28
    1608:	df 93       	push	r29
    160a:	00 d0       	rcall	.+0      	; 0x160c <SPI_Master_Stop+0x6>
    160c:	00 d0       	rcall	.+0      	; 0x160e <SPI_Master_Stop+0x8>
    160e:	00 d0       	rcall	.+0      	; 0x1610 <SPI_Master_Stop+0xa>
    1610:	cd b7       	in	r28, 0x3d	; 61
    1612:	de b7       	in	r29, 0x3e	; 62
    1614:	49 83       	std	Y+1, r20	; 0x01
    1616:	5a 83       	std	Y+2, r21	; 0x02
    1618:	6b 83       	std	Y+3, r22	; 0x03
    161a:	7c 83       	std	Y+4, r23	; 0x04
    161c:	8d 83       	std	Y+5, r24	; 0x05
    161e:	9e 83       	std	Y+6, r25	; 0x06
    1620:	8b 81       	ldd	r24, Y+3	; 0x03
    1622:	9c 81       	ldd	r25, Y+4	; 0x04
    1624:	2b 81       	ldd	r18, Y+3	; 0x03
    1626:	3c 81       	ldd	r19, Y+4	; 0x04
    1628:	f9 01       	movw	r30, r18
    162a:	20 81       	ld	r18, Z
    162c:	62 2f       	mov	r22, r18
    162e:	2d 81       	ldd	r18, Y+5	; 0x05
    1630:	42 2f       	mov	r20, r18
    1632:	50 e0       	ldi	r21, 0x00	; 0
    1634:	21 e0       	ldi	r18, 0x01	; 1
    1636:	30 e0       	ldi	r19, 0x00	; 0
    1638:	02 c0       	rjmp	.+4      	; 0x163e <SPI_Master_Stop+0x38>
    163a:	22 0f       	add	r18, r18
    163c:	33 1f       	adc	r19, r19
    163e:	4a 95       	dec	r20
    1640:	e2 f7       	brpl	.-8      	; 0x163a <SPI_Master_Stop+0x34>
    1642:	26 2b       	or	r18, r22
    1644:	fc 01       	movw	r30, r24
    1646:	20 83       	st	Z, r18
    1648:	00 00       	nop
    164a:	26 96       	adiw	r28, 0x06	; 6
    164c:	0f b6       	in	r0, 0x3f	; 63
    164e:	f8 94       	cli
    1650:	de bf       	out	0x3e, r29	; 62
    1652:	0f be       	out	0x3f, r0	; 63
    1654:	cd bf       	out	0x3d, r28	; 61
    1656:	df 91       	pop	r29
    1658:	cf 91       	pop	r28
    165a:	08 95       	ret

0000165c <SPI_Master_Write>:
    165c:	cf 93       	push	r28
    165e:	df 93       	push	r29
    1660:	1f 92       	push	r1
    1662:	cd b7       	in	r28, 0x3d	; 61
    1664:	de b7       	in	r29, 0x3e	; 62
    1666:	89 83       	std	Y+1, r24	; 0x01
    1668:	8e e4       	ldi	r24, 0x4E	; 78
    166a:	90 e0       	ldi	r25, 0x00	; 0
    166c:	29 81       	ldd	r18, Y+1	; 0x01
    166e:	fc 01       	movw	r30, r24
    1670:	20 83       	st	Z, r18
    1672:	00 00       	nop
    1674:	8d e4       	ldi	r24, 0x4D	; 77
    1676:	90 e0       	ldi	r25, 0x00	; 0
    1678:	fc 01       	movw	r30, r24
    167a:	80 81       	ld	r24, Z
    167c:	88 23       	and	r24, r24
    167e:	d4 f7       	brge	.-12     	; 0x1674 <SPI_Master_Write+0x18>
    1680:	8e e4       	ldi	r24, 0x4E	; 78
    1682:	90 e0       	ldi	r25, 0x00	; 0
    1684:	fc 01       	movw	r30, r24
    1686:	80 81       	ld	r24, Z
    1688:	0f 90       	pop	r0
    168a:	df 91       	pop	r29
    168c:	cf 91       	pop	r28
    168e:	08 95       	ret

00001690 <Timer1_Init>:
    1690:	cf 93       	push	r28
    1692:	df 93       	push	r29
    1694:	cd b7       	in	r28, 0x3d	; 61
    1696:	de b7       	in	r29, 0x3e	; 62
    1698:	80 e8       	ldi	r24, 0x80	; 128
    169a:	90 e0       	ldi	r25, 0x00	; 0
    169c:	20 e8       	ldi	r18, 0x80	; 128
    169e:	30 e0       	ldi	r19, 0x00	; 0
    16a0:	f9 01       	movw	r30, r18
    16a2:	20 81       	ld	r18, Z
    16a4:	22 60       	ori	r18, 0x02	; 2
    16a6:	fc 01       	movw	r30, r24
    16a8:	20 83       	st	Z, r18
    16aa:	81 e8       	ldi	r24, 0x81	; 129
    16ac:	90 e0       	ldi	r25, 0x00	; 0
    16ae:	21 e8       	ldi	r18, 0x81	; 129
    16b0:	30 e0       	ldi	r19, 0x00	; 0
    16b2:	f9 01       	movw	r30, r18
    16b4:	20 81       	ld	r18, Z
    16b6:	25 60       	ori	r18, 0x05	; 5
    16b8:	fc 01       	movw	r30, r24
    16ba:	20 83       	st	Z, r18
    16bc:	87 e4       	ldi	r24, 0x47	; 71
    16be:	90 e0       	ldi	r25, 0x00	; 0
    16c0:	23 eb       	ldi	r18, 0xB3	; 179
    16c2:	fc 01       	movw	r30, r24
    16c4:	20 83       	st	Z, r18
    16c6:	8f e6       	ldi	r24, 0x6F	; 111
    16c8:	90 e0       	ldi	r25, 0x00	; 0
    16ca:	2f e6       	ldi	r18, 0x6F	; 111
    16cc:	30 e0       	ldi	r19, 0x00	; 0
    16ce:	f9 01       	movw	r30, r18
    16d0:	20 81       	ld	r18, Z
    16d2:	22 60       	ori	r18, 0x02	; 2
    16d4:	fc 01       	movw	r30, r24
    16d6:	20 83       	st	Z, r18
    16d8:	78 94       	sei
    16da:	00 00       	nop
    16dc:	df 91       	pop	r29
    16de:	cf 91       	pop	r28
    16e0:	08 95       	ret

000016e2 <__vector_11>:
    16e2:	1f 92       	push	r1
    16e4:	0f 92       	push	r0
    16e6:	00 90 5f 00 	lds	r0, 0x005F	; 0x80005f <__TEXT_REGION_LENGTH__+0x7fe05f>
    16ea:	0f 92       	push	r0
    16ec:	11 24       	eor	r1, r1
    16ee:	8f 93       	push	r24
    16f0:	cf 93       	push	r28
    16f2:	df 93       	push	r29
    16f4:	cd b7       	in	r28, 0x3d	; 61
    16f6:	de b7       	in	r29, 0x3e	; 62
    16f8:	81 e0       	ldi	r24, 0x01	; 1
    16fa:	80 93 6e 01 	sts	0x016E, r24	; 0x80016e <ucFlag10ms>
    16fe:	80 91 6f 01 	lds	r24, 0x016F	; 0x80016f <ucCNt_1s>
    1702:	8f 5f       	subi	r24, 0xFF	; 255
    1704:	80 93 6f 01 	sts	0x016F, r24	; 0x80016f <ucCNt_1s>
    1708:	80 91 71 01 	lds	r24, 0x0171	; 0x800171 <ucCNt_100ms>
    170c:	8f 5f       	subi	r24, 0xFF	; 255
    170e:	80 93 71 01 	sts	0x0171, r24	; 0x800171 <ucCNt_100ms>
    1712:	80 91 6f 01 	lds	r24, 0x016F	; 0x80016f <ucCNt_1s>
    1716:	84 36       	cpi	r24, 0x64	; 100
    1718:	29 f4       	brne	.+10     	; 0x1724 <__vector_11+0x42>
    171a:	10 92 6f 01 	sts	0x016F, r1	; 0x80016f <ucCNt_1s>
    171e:	81 e0       	ldi	r24, 0x01	; 1
    1720:	80 93 70 01 	sts	0x0170, r24	; 0x800170 <ucFlag_1s>
    1724:	80 91 71 01 	lds	r24, 0x0171	; 0x800171 <ucCNt_100ms>
    1728:	8a 30       	cpi	r24, 0x0A	; 10
    172a:	29 f4       	brne	.+10     	; 0x1736 <__vector_11+0x54>
    172c:	10 92 71 01 	sts	0x0171, r1	; 0x800171 <ucCNt_100ms>
    1730:	81 e0       	ldi	r24, 0x01	; 1
    1732:	80 93 72 01 	sts	0x0172, r24	; 0x800172 <ucFlag_100ms>
    1736:	00 00       	nop
    1738:	df 91       	pop	r29
    173a:	cf 91       	pop	r28
    173c:	8f 91       	pop	r24
    173e:	0f 90       	pop	r0
    1740:	00 92 5f 00 	sts	0x005F, r0	; 0x80005f <__TEXT_REGION_LENGTH__+0x7fe05f>
    1744:	0f 90       	pop	r0
    1746:	1f 90       	pop	r1
    1748:	18 95       	reti

0000174a <Timer1_get_1sState>:
    174a:	cf 93       	push	r28
    174c:	df 93       	push	r29
    174e:	cd b7       	in	r28, 0x3d	; 61
    1750:	de b7       	in	r29, 0x3e	; 62
    1752:	80 91 70 01 	lds	r24, 0x0170	; 0x800170 <ucFlag_1s>
    1756:	81 30       	cpi	r24, 0x01	; 1
    1758:	21 f4       	brne	.+8      	; 0x1762 <Timer1_get_1sState+0x18>
    175a:	10 92 70 01 	sts	0x0170, r1	; 0x800170 <ucFlag_1s>
    175e:	81 e0       	ldi	r24, 0x01	; 1
    1760:	01 c0       	rjmp	.+2      	; 0x1764 <Timer1_get_1sState+0x1a>
    1762:	80 e0       	ldi	r24, 0x00	; 0
    1764:	df 91       	pop	r29
    1766:	cf 91       	pop	r28
    1768:	08 95       	ret

0000176a <Timer1_get_100msState>:
    176a:	cf 93       	push	r28
    176c:	df 93       	push	r29
    176e:	cd b7       	in	r28, 0x3d	; 61
    1770:	de b7       	in	r29, 0x3e	; 62
    1772:	80 91 72 01 	lds	r24, 0x0172	; 0x800172 <ucFlag_100ms>
    1776:	81 30       	cpi	r24, 0x01	; 1
    1778:	21 f4       	brne	.+8      	; 0x1782 <Timer1_get_100msState+0x18>
    177a:	10 92 72 01 	sts	0x0172, r1	; 0x800172 <ucFlag_100ms>
    177e:	81 e0       	ldi	r24, 0x01	; 1
    1780:	01 c0       	rjmp	.+2      	; 0x1784 <Timer1_get_100msState+0x1a>
    1782:	80 e0       	ldi	r24, 0x00	; 0
    1784:	df 91       	pop	r29
    1786:	cf 91       	pop	r28
    1788:	08 95       	ret

0000178a <__vector_7>:
    178a:	1f 92       	push	r1
    178c:	0f 92       	push	r0
    178e:	00 90 5f 00 	lds	r0, 0x005F	; 0x80005f <__TEXT_REGION_LENGTH__+0x7fe05f>
    1792:	0f 92       	push	r0
    1794:	11 24       	eor	r1, r1
    1796:	8f 93       	push	r24
    1798:	cf 93       	push	r28
    179a:	df 93       	push	r29
    179c:	cd b7       	in	r28, 0x3d	; 61
    179e:	de b7       	in	r29, 0x3e	; 62
    17a0:	81 e0       	ldi	r24, 0x01	; 1
    17a2:	80 93 73 01 	sts	0x0173, r24	; 0x800173 <uc10MsFlag>
    17a6:	80 91 75 01 	lds	r24, 0x0175	; 0x800175 <uc10MsCnt>
    17aa:	8f 5f       	subi	r24, 0xFF	; 255
    17ac:	80 93 75 01 	sts	0x0175, r24	; 0x800175 <uc10MsCnt>
    17b0:	80 91 75 01 	lds	r24, 0x0175	; 0x800175 <uc10MsCnt>
    17b4:	8a 30       	cpi	r24, 0x0A	; 10
    17b6:	99 f4       	brne	.+38     	; 0x17de <__vector_7+0x54>
    17b8:	81 e0       	ldi	r24, 0x01	; 1
    17ba:	80 93 74 01 	sts	0x0174, r24	; 0x800174 <uc100MsFlag>
    17be:	80 91 76 01 	lds	r24, 0x0176	; 0x800176 <uc100MsCnt>
    17c2:	8f 5f       	subi	r24, 0xFF	; 255
    17c4:	80 93 76 01 	sts	0x0176, r24	; 0x800176 <uc100MsCnt>
    17c8:	10 92 75 01 	sts	0x0175, r1	; 0x800175 <uc10MsCnt>
    17cc:	80 91 76 01 	lds	r24, 0x0176	; 0x800176 <uc100MsCnt>
    17d0:	8a 30       	cpi	r24, 0x0A	; 10
    17d2:	29 f4       	brne	.+10     	; 0x17de <__vector_7+0x54>
    17d4:	81 e0       	ldi	r24, 0x01	; 1
    17d6:	80 93 77 01 	sts	0x0177, r24	; 0x800177 <uc1sFlag>
    17da:	10 92 76 01 	sts	0x0176, r1	; 0x800176 <uc100MsCnt>
    17de:	00 00       	nop
    17e0:	df 91       	pop	r29
    17e2:	cf 91       	pop	r28
    17e4:	8f 91       	pop	r24
    17e6:	0f 90       	pop	r0
    17e8:	00 92 5f 00 	sts	0x005F, r0	; 0x80005f <__TEXT_REGION_LENGTH__+0x7fe05f>
    17ec:	0f 90       	pop	r0
    17ee:	1f 90       	pop	r1
    17f0:	18 95       	reti

000017f2 <TMP75_Read_Temperature>:
    17f2:	cf 93       	push	r28
    17f4:	df 93       	push	r29
    17f6:	00 d0       	rcall	.+0      	; 0x17f8 <TMP75_Read_Temperature+0x6>
    17f8:	1f 92       	push	r1
    17fa:	cd b7       	in	r28, 0x3d	; 61
    17fc:	de b7       	in	r29, 0x3e	; 62
    17fe:	80 91 38 01 	lds	r24, 0x0138	; 0x800138 <ucdevice_address>
    1802:	88 0f       	add	r24, r24
    1804:	89 83       	std	Y+1, r24	; 0x01
    1806:	d4 d0       	rcall	.+424    	; 0x19b0 <TWI_Master_Start>
    1808:	89 eb       	ldi	r24, 0xB9	; 185
    180a:	90 e0       	ldi	r25, 0x00	; 0
    180c:	fc 01       	movw	r30, r24
    180e:	80 81       	ld	r24, Z
    1810:	88 2f       	mov	r24, r24
    1812:	90 e0       	ldi	r25, 0x00	; 0
    1814:	88 7f       	andi	r24, 0xF8	; 248
    1816:	99 27       	eor	r25, r25
    1818:	08 97       	sbiw	r24, 0x08	; 8
    181a:	11 f0       	breq	.+4      	; 0x1820 <TMP75_Read_Temperature+0x2e>
    181c:	81 e0       	ldi	r24, 0x01	; 1
    181e:	6f c0       	rjmp	.+222    	; 0x18fe <TMP75_Read_Temperature+0x10c>
    1820:	89 81       	ldd	r24, Y+1	; 0x01
    1822:	e7 d0       	rcall	.+462    	; 0x19f2 <TWI_Master_Transmit>
    1824:	89 eb       	ldi	r24, 0xB9	; 185
    1826:	90 e0       	ldi	r25, 0x00	; 0
    1828:	fc 01       	movw	r30, r24
    182a:	80 81       	ld	r24, Z
    182c:	88 2f       	mov	r24, r24
    182e:	90 e0       	ldi	r25, 0x00	; 0
    1830:	88 7f       	andi	r24, 0xF8	; 248
    1832:	99 27       	eor	r25, r25
    1834:	48 97       	sbiw	r24, 0x18	; 24
    1836:	11 f0       	breq	.+4      	; 0x183c <TMP75_Read_Temperature+0x4a>
    1838:	81 e0       	ldi	r24, 0x01	; 1
    183a:	61 c0       	rjmp	.+194    	; 0x18fe <TMP75_Read_Temperature+0x10c>
    183c:	80 91 78 01 	lds	r24, 0x0178	; 0x800178 <uctemp2read>
    1840:	d8 d0       	rcall	.+432    	; 0x19f2 <TWI_Master_Transmit>
    1842:	89 eb       	ldi	r24, 0xB9	; 185
    1844:	90 e0       	ldi	r25, 0x00	; 0
    1846:	fc 01       	movw	r30, r24
    1848:	80 81       	ld	r24, Z
    184a:	88 2f       	mov	r24, r24
    184c:	90 e0       	ldi	r25, 0x00	; 0
    184e:	88 7f       	andi	r24, 0xF8	; 248
    1850:	99 27       	eor	r25, r25
    1852:	88 97       	sbiw	r24, 0x28	; 40
    1854:	11 f0       	breq	.+4      	; 0x185a <TMP75_Read_Temperature+0x68>
    1856:	81 e0       	ldi	r24, 0x01	; 1
    1858:	52 c0       	rjmp	.+164    	; 0x18fe <TMP75_Read_Temperature+0x10c>
    185a:	aa d0       	rcall	.+340    	; 0x19b0 <TWI_Master_Start>
    185c:	89 eb       	ldi	r24, 0xB9	; 185
    185e:	90 e0       	ldi	r25, 0x00	; 0
    1860:	fc 01       	movw	r30, r24
    1862:	80 81       	ld	r24, Z
    1864:	88 2f       	mov	r24, r24
    1866:	90 e0       	ldi	r25, 0x00	; 0
    1868:	88 7f       	andi	r24, 0xF8	; 248
    186a:	99 27       	eor	r25, r25
    186c:	40 97       	sbiw	r24, 0x10	; 16
    186e:	11 f0       	breq	.+4      	; 0x1874 <TMP75_Read_Temperature+0x82>
    1870:	81 e0       	ldi	r24, 0x01	; 1
    1872:	45 c0       	rjmp	.+138    	; 0x18fe <TMP75_Read_Temperature+0x10c>
    1874:	80 91 38 01 	lds	r24, 0x0138	; 0x800138 <ucdevice_address>
    1878:	88 2f       	mov	r24, r24
    187a:	90 e0       	ldi	r25, 0x00	; 0
    187c:	88 0f       	add	r24, r24
    187e:	99 1f       	adc	r25, r25
    1880:	81 60       	ori	r24, 0x01	; 1
    1882:	89 83       	std	Y+1, r24	; 0x01
    1884:	89 81       	ldd	r24, Y+1	; 0x01
    1886:	b5 d0       	rcall	.+362    	; 0x19f2 <TWI_Master_Transmit>
    1888:	89 eb       	ldi	r24, 0xB9	; 185
    188a:	90 e0       	ldi	r25, 0x00	; 0
    188c:	fc 01       	movw	r30, r24
    188e:	80 81       	ld	r24, Z
    1890:	88 2f       	mov	r24, r24
    1892:	90 e0       	ldi	r25, 0x00	; 0
    1894:	88 7f       	andi	r24, 0xF8	; 248
    1896:	99 27       	eor	r25, r25
    1898:	80 34       	cpi	r24, 0x40	; 64
    189a:	91 05       	cpc	r25, r1
    189c:	11 f0       	breq	.+4      	; 0x18a2 <TMP75_Read_Temperature+0xb0>
    189e:	81 e0       	ldi	r24, 0x01	; 1
    18a0:	2e c0       	rjmp	.+92     	; 0x18fe <TMP75_Read_Temperature+0x10c>
    18a2:	c3 d0       	rcall	.+390    	; 0x1a2a <TWI_Master_Read_Ack>
    18a4:	8a 83       	std	Y+2, r24	; 0x02
    18a6:	89 eb       	ldi	r24, 0xB9	; 185
    18a8:	90 e0       	ldi	r25, 0x00	; 0
    18aa:	fc 01       	movw	r30, r24
    18ac:	80 81       	ld	r24, Z
    18ae:	88 2f       	mov	r24, r24
    18b0:	90 e0       	ldi	r25, 0x00	; 0
    18b2:	88 7f       	andi	r24, 0xF8	; 248
    18b4:	99 27       	eor	r25, r25
    18b6:	80 35       	cpi	r24, 0x50	; 80
    18b8:	91 05       	cpc	r25, r1
    18ba:	11 f0       	breq	.+4      	; 0x18c0 <TMP75_Read_Temperature+0xce>
    18bc:	81 e0       	ldi	r24, 0x01	; 1
    18be:	1f c0       	rjmp	.+62     	; 0x18fe <TMP75_Read_Temperature+0x10c>
    18c0:	cb d0       	rcall	.+406    	; 0x1a58 <TWI_Master_Read_NAck>
    18c2:	8b 83       	std	Y+3, r24	; 0x03
    18c4:	89 eb       	ldi	r24, 0xB9	; 185
    18c6:	90 e0       	ldi	r25, 0x00	; 0
    18c8:	fc 01       	movw	r30, r24
    18ca:	80 81       	ld	r24, Z
    18cc:	88 2f       	mov	r24, r24
    18ce:	90 e0       	ldi	r25, 0x00	; 0
    18d0:	88 7f       	andi	r24, 0xF8	; 248
    18d2:	99 27       	eor	r25, r25
    18d4:	88 35       	cpi	r24, 0x58	; 88
    18d6:	91 05       	cpc	r25, r1
    18d8:	11 f0       	breq	.+4      	; 0x18de <TMP75_Read_Temperature+0xec>
    18da:	81 e0       	ldi	r24, 0x01	; 1
    18dc:	10 c0       	rjmp	.+32     	; 0x18fe <TMP75_Read_Temperature+0x10c>
    18de:	7c d0       	rcall	.+248    	; 0x19d8 <TWI_Master_Stop>
    18e0:	8a 81       	ldd	r24, Y+2	; 0x02
    18e2:	88 2f       	mov	r24, r24
    18e4:	90 e0       	ldi	r25, 0x00	; 0
    18e6:	38 2f       	mov	r19, r24
    18e8:	22 27       	eor	r18, r18
    18ea:	8b 81       	ldd	r24, Y+3	; 0x03
    18ec:	88 2f       	mov	r24, r24
    18ee:	90 e0       	ldi	r25, 0x00	; 0
    18f0:	82 0f       	add	r24, r18
    18f2:	93 1f       	adc	r25, r19
    18f4:	90 93 b5 01 	sts	0x01B5, r25	; 0x8001b5 <iTemperature+0x1>
    18f8:	80 93 b4 01 	sts	0x01B4, r24	; 0x8001b4 <iTemperature>
    18fc:	80 e0       	ldi	r24, 0x00	; 0
    18fe:	0f 90       	pop	r0
    1900:	0f 90       	pop	r0
    1902:	0f 90       	pop	r0
    1904:	df 91       	pop	r29
    1906:	cf 91       	pop	r28
    1908:	08 95       	ret

0000190a <TMP75_Get_Temperature>:
    190a:	cf 93       	push	r28
    190c:	df 93       	push	r29
    190e:	cd b7       	in	r28, 0x3d	; 61
    1910:	de b7       	in	r29, 0x3e	; 62
    1912:	80 91 b4 01 	lds	r24, 0x01B4	; 0x8001b4 <iTemperature>
    1916:	90 91 b5 01 	lds	r25, 0x01B5	; 0x8001b5 <iTemperature+0x1>
    191a:	99 23       	and	r25, r25
    191c:	44 f4       	brge	.+16     	; 0x192e <TMP75_Get_Temperature+0x24>
    191e:	80 91 b4 01 	lds	r24, 0x01B4	; 0x8001b4 <iTemperature>
    1922:	90 91 b5 01 	lds	r25, 0x01B5	; 0x8001b5 <iTemperature+0x1>
    1926:	90 93 b5 01 	sts	0x01B5, r25	; 0x8001b5 <iTemperature+0x1>
    192a:	80 93 b4 01 	sts	0x01B4, r24	; 0x8001b4 <iTemperature>
    192e:	80 91 b4 01 	lds	r24, 0x01B4	; 0x8001b4 <iTemperature>
    1932:	90 91 b5 01 	lds	r25, 0x01B5	; 0x8001b5 <iTemperature+0x1>
    1936:	89 2f       	mov	r24, r25
    1938:	99 0f       	add	r25, r25
    193a:	99 0b       	sbc	r25, r25
    193c:	88 0f       	add	r24, r24
    193e:	99 1f       	adc	r25, r25
    1940:	9c 01       	movw	r18, r24
    1942:	22 0f       	add	r18, r18
    1944:	33 1f       	adc	r19, r19
    1946:	22 0f       	add	r18, r18
    1948:	33 1f       	adc	r19, r19
    194a:	ac 01       	movw	r20, r24
    194c:	42 0f       	add	r20, r18
    194e:	53 1f       	adc	r21, r19
    1950:	80 91 b4 01 	lds	r24, 0x01B4	; 0x8001b4 <iTemperature>
    1954:	90 91 b5 01 	lds	r25, 0x01B5	; 0x8001b5 <iTemperature+0x1>
    1958:	9c 01       	movw	r18, r24
    195a:	20 7f       	andi	r18, 0xF0	; 240
    195c:	33 27       	eor	r19, r19
    195e:	c9 01       	movw	r24, r18
    1960:	88 0f       	add	r24, r24
    1962:	99 1f       	adc	r25, r25
    1964:	88 0f       	add	r24, r24
    1966:	99 1f       	adc	r25, r25
    1968:	82 0f       	add	r24, r18
    196a:	93 1f       	adc	r25, r19
    196c:	99 23       	and	r25, r25
    196e:	14 f4       	brge	.+4      	; 0x1974 <TMP75_Get_Temperature+0x6a>
    1970:	81 58       	subi	r24, 0x81	; 129
    1972:	9f 4f       	sbci	r25, 0xFF	; 255
    1974:	88 0f       	add	r24, r24
    1976:	89 2f       	mov	r24, r25
    1978:	88 1f       	adc	r24, r24
    197a:	99 0b       	sbc	r25, r25
    197c:	84 0f       	add	r24, r20
    197e:	95 1f       	adc	r25, r21
    1980:	df 91       	pop	r29
    1982:	cf 91       	pop	r28
    1984:	08 95       	ret

00001986 <TWI_Master_Init>:
    1986:	cf 93       	push	r28
    1988:	df 93       	push	r29
    198a:	1f 92       	push	r1
    198c:	cd b7       	in	r28, 0x3d	; 61
    198e:	de b7       	in	r29, 0x3e	; 62
    1990:	89 83       	std	Y+1, r24	; 0x01
    1992:	8c eb       	ldi	r24, 0xBC	; 188
    1994:	90 e0       	ldi	r25, 0x00	; 0
    1996:	24 e4       	ldi	r18, 0x44	; 68
    1998:	fc 01       	movw	r30, r24
    199a:	20 83       	st	Z, r18
    199c:	88 eb       	ldi	r24, 0xB8	; 184
    199e:	90 e0       	ldi	r25, 0x00	; 0
    19a0:	29 81       	ldd	r18, Y+1	; 0x01
    19a2:	fc 01       	movw	r30, r24
    19a4:	20 83       	st	Z, r18
    19a6:	00 00       	nop
    19a8:	0f 90       	pop	r0
    19aa:	df 91       	pop	r29
    19ac:	cf 91       	pop	r28
    19ae:	08 95       	ret

000019b0 <TWI_Master_Start>:
    19b0:	cf 93       	push	r28
    19b2:	df 93       	push	r29
    19b4:	cd b7       	in	r28, 0x3d	; 61
    19b6:	de b7       	in	r29, 0x3e	; 62
    19b8:	8c eb       	ldi	r24, 0xBC	; 188
    19ba:	90 e0       	ldi	r25, 0x00	; 0
    19bc:	24 ea       	ldi	r18, 0xA4	; 164
    19be:	fc 01       	movw	r30, r24
    19c0:	20 83       	st	Z, r18
    19c2:	00 00       	nop
    19c4:	8c eb       	ldi	r24, 0xBC	; 188
    19c6:	90 e0       	ldi	r25, 0x00	; 0
    19c8:	fc 01       	movw	r30, r24
    19ca:	80 81       	ld	r24, Z
    19cc:	88 23       	and	r24, r24
    19ce:	d4 f7       	brge	.-12     	; 0x19c4 <TWI_Master_Start+0x14>
    19d0:	00 00       	nop
    19d2:	df 91       	pop	r29
    19d4:	cf 91       	pop	r28
    19d6:	08 95       	ret

000019d8 <TWI_Master_Stop>:
    19d8:	cf 93       	push	r28
    19da:	df 93       	push	r29
    19dc:	cd b7       	in	r28, 0x3d	; 61
    19de:	de b7       	in	r29, 0x3e	; 62
    19e0:	8c eb       	ldi	r24, 0xBC	; 188
    19e2:	90 e0       	ldi	r25, 0x00	; 0
    19e4:	24 e9       	ldi	r18, 0x94	; 148
    19e6:	fc 01       	movw	r30, r24
    19e8:	20 83       	st	Z, r18
    19ea:	00 00       	nop
    19ec:	df 91       	pop	r29
    19ee:	cf 91       	pop	r28
    19f0:	08 95       	ret

000019f2 <TWI_Master_Transmit>:
    19f2:	cf 93       	push	r28
    19f4:	df 93       	push	r29
    19f6:	1f 92       	push	r1
    19f8:	cd b7       	in	r28, 0x3d	; 61
    19fa:	de b7       	in	r29, 0x3e	; 62
    19fc:	89 83       	std	Y+1, r24	; 0x01
    19fe:	8b eb       	ldi	r24, 0xBB	; 187
    1a00:	90 e0       	ldi	r25, 0x00	; 0
    1a02:	29 81       	ldd	r18, Y+1	; 0x01
    1a04:	fc 01       	movw	r30, r24
    1a06:	20 83       	st	Z, r18
    1a08:	8c eb       	ldi	r24, 0xBC	; 188
    1a0a:	90 e0       	ldi	r25, 0x00	; 0
    1a0c:	24 e8       	ldi	r18, 0x84	; 132
    1a0e:	fc 01       	movw	r30, r24
    1a10:	20 83       	st	Z, r18
    1a12:	00 00       	nop
    1a14:	8c eb       	ldi	r24, 0xBC	; 188
    1a16:	90 e0       	ldi	r25, 0x00	; 0
    1a18:	fc 01       	movw	r30, r24
    1a1a:	80 81       	ld	r24, Z
    1a1c:	88 23       	and	r24, r24
    1a1e:	d4 f7       	brge	.-12     	; 0x1a14 <TWI_Master_Transmit+0x22>
    1a20:	00 00       	nop
    1a22:	0f 90       	pop	r0
    1a24:	df 91       	pop	r29
    1a26:	cf 91       	pop	r28
    1a28:	08 95       	ret

00001a2a <TWI_Master_Read_Ack>:
    1a2a:	cf 93       	push	r28
    1a2c:	df 93       	push	r29
    1a2e:	cd b7       	in	r28, 0x3d	; 61
    1a30:	de b7       	in	r29, 0x3e	; 62
    1a32:	8c eb       	ldi	r24, 0xBC	; 188
    1a34:	90 e0       	ldi	r25, 0x00	; 0
    1a36:	24 ec       	ldi	r18, 0xC4	; 196
    1a38:	fc 01       	movw	r30, r24
    1a3a:	20 83       	st	Z, r18
    1a3c:	00 00       	nop
    1a3e:	8c eb       	ldi	r24, 0xBC	; 188
    1a40:	90 e0       	ldi	r25, 0x00	; 0
    1a42:	fc 01       	movw	r30, r24
    1a44:	80 81       	ld	r24, Z
    1a46:	88 23       	and	r24, r24
    1a48:	d4 f7       	brge	.-12     	; 0x1a3e <TWI_Master_Read_Ack+0x14>
    1a4a:	8b eb       	ldi	r24, 0xBB	; 187
    1a4c:	90 e0       	ldi	r25, 0x00	; 0
    1a4e:	fc 01       	movw	r30, r24
    1a50:	80 81       	ld	r24, Z
    1a52:	df 91       	pop	r29
    1a54:	cf 91       	pop	r28
    1a56:	08 95       	ret

00001a58 <TWI_Master_Read_NAck>:
    1a58:	cf 93       	push	r28
    1a5a:	df 93       	push	r29
    1a5c:	cd b7       	in	r28, 0x3d	; 61
    1a5e:	de b7       	in	r29, 0x3e	; 62
    1a60:	8c eb       	ldi	r24, 0xBC	; 188
    1a62:	90 e0       	ldi	r25, 0x00	; 0
    1a64:	24 e8       	ldi	r18, 0x84	; 132
    1a66:	fc 01       	movw	r30, r24
    1a68:	20 83       	st	Z, r18
    1a6a:	00 00       	nop
    1a6c:	8c eb       	ldi	r24, 0xBC	; 188
    1a6e:	90 e0       	ldi	r25, 0x00	; 0
    1a70:	fc 01       	movw	r30, r24
    1a72:	80 81       	ld	r24, Z
    1a74:	88 23       	and	r24, r24
    1a76:	d4 f7       	brge	.-12     	; 0x1a6c <TWI_Master_Read_NAck+0x14>
    1a78:	8b eb       	ldi	r24, 0xBB	; 187
    1a7a:	90 e0       	ldi	r25, 0x00	; 0
    1a7c:	fc 01       	movw	r30, r24
    1a7e:	80 81       	ld	r24, Z
    1a80:	df 91       	pop	r29
    1a82:	cf 91       	pop	r28
    1a84:	08 95       	ret

00001a86 <__vector_24>:
    1a86:	1f 92       	push	r1
    1a88:	0f 92       	push	r0
    1a8a:	00 90 5f 00 	lds	r0, 0x005F	; 0x80005f <__TEXT_REGION_LENGTH__+0x7fe05f>
    1a8e:	0f 92       	push	r0
    1a90:	11 24       	eor	r1, r1
    1a92:	2f 93       	push	r18
    1a94:	3f 93       	push	r19
    1a96:	8f 93       	push	r24
    1a98:	9f 93       	push	r25
    1a9a:	ef 93       	push	r30
    1a9c:	ff 93       	push	r31
    1a9e:	cf 93       	push	r28
    1aa0:	df 93       	push	r29
    1aa2:	cd b7       	in	r28, 0x3d	; 61
    1aa4:	de b7       	in	r29, 0x3e	; 62
    1aa6:	81 e0       	ldi	r24, 0x01	; 1
    1aa8:	80 93 79 01 	sts	0x0179, r24	; 0x800179 <ucTWI_INT_Flag>
    1aac:	89 eb       	ldi	r24, 0xB9	; 185
    1aae:	90 e0       	ldi	r25, 0x00	; 0
    1ab0:	fc 01       	movw	r30, r24
    1ab2:	80 81       	ld	r24, Z
    1ab4:	88 7f       	andi	r24, 0xF8	; 248
    1ab6:	80 93 b6 01 	sts	0x01B6, r24	; 0x8001b6 <ucTWSR_Register>
    1aba:	8c eb       	ldi	r24, 0xBC	; 188
    1abc:	90 e0       	ldi	r25, 0x00	; 0
    1abe:	2c eb       	ldi	r18, 0xBC	; 188
    1ac0:	30 e0       	ldi	r19, 0x00	; 0
    1ac2:	f9 01       	movw	r30, r18
    1ac4:	20 81       	ld	r18, Z
    1ac6:	20 68       	ori	r18, 0x80	; 128
    1ac8:	fc 01       	movw	r30, r24
    1aca:	20 83       	st	Z, r18
    1acc:	00 00       	nop
    1ace:	df 91       	pop	r29
    1ad0:	cf 91       	pop	r28
    1ad2:	ff 91       	pop	r31
    1ad4:	ef 91       	pop	r30
    1ad6:	9f 91       	pop	r25
    1ad8:	8f 91       	pop	r24
    1ada:	3f 91       	pop	r19
    1adc:	2f 91       	pop	r18
    1ade:	0f 90       	pop	r0
    1ae0:	00 92 5f 00 	sts	0x005F, r0	; 0x80005f <__TEXT_REGION_LENGTH__+0x7fe05f>
    1ae4:	0f 90       	pop	r0
    1ae6:	1f 90       	pop	r1
    1ae8:	18 95       	reti

00001aea <WS2812_Init>:
    1aea:	cf 93       	push	r28
    1aec:	df 93       	push	r29
    1aee:	cd b7       	in	r28, 0x3d	; 61
    1af0:	de b7       	in	r29, 0x3e	; 62
    1af2:	80 91 0c 01 	lds	r24, 0x010C	; 0x80010c <WS2812_1>
    1af6:	90 91 0d 01 	lds	r25, 0x010D	; 0x80010d <WS2812_1+0x1>
    1afa:	20 91 0c 01 	lds	r18, 0x010C	; 0x80010c <WS2812_1>
    1afe:	30 91 0d 01 	lds	r19, 0x010D	; 0x80010d <WS2812_1+0x1>
    1b02:	f9 01       	movw	r30, r18
    1b04:	20 81       	ld	r18, Z
    1b06:	62 2f       	mov	r22, r18
    1b08:	20 91 10 01 	lds	r18, 0x0110	; 0x800110 <WS2812_1+0x4>
    1b0c:	42 2f       	mov	r20, r18
    1b0e:	50 e0       	ldi	r21, 0x00	; 0
    1b10:	21 e0       	ldi	r18, 0x01	; 1
    1b12:	30 e0       	ldi	r19, 0x00	; 0
    1b14:	02 c0       	rjmp	.+4      	; 0x1b1a <WS2812_Init+0x30>
    1b16:	22 0f       	add	r18, r18
    1b18:	33 1f       	adc	r19, r19
    1b1a:	4a 95       	dec	r20
    1b1c:	e2 f7       	brpl	.-8      	; 0x1b16 <WS2812_Init+0x2c>
    1b1e:	26 2b       	or	r18, r22
    1b20:	fc 01       	movw	r30, r24
    1b22:	20 83       	st	Z, r18
    1b24:	00 00       	nop
    1b26:	df 91       	pop	r29
    1b28:	cf 91       	pop	r28
    1b2a:	08 95       	ret

00001b2c <WS2812_Set_Colour>:
    1b2c:	cf 93       	push	r28
    1b2e:	df 93       	push	r29
    1b30:	00 d0       	rcall	.+0      	; 0x1b32 <WS2812_Set_Colour+0x6>
    1b32:	00 d0       	rcall	.+0      	; 0x1b34 <WS2812_Set_Colour+0x8>
    1b34:	cd b7       	in	r28, 0x3d	; 61
    1b36:	de b7       	in	r29, 0x3e	; 62
    1b38:	9a 83       	std	Y+2, r25	; 0x02
    1b3a:	89 83       	std	Y+1, r24	; 0x01
    1b3c:	7c 83       	std	Y+4, r23	; 0x04
    1b3e:	6b 83       	std	Y+3, r22	; 0x03
    1b40:	80 91 0e 01 	lds	r24, 0x010E	; 0x80010e <WS2812_1+0x2>
    1b44:	90 91 0f 01 	lds	r25, 0x010F	; 0x80010f <WS2812_1+0x3>
    1b48:	20 91 0e 01 	lds	r18, 0x010E	; 0x80010e <WS2812_1+0x2>
    1b4c:	30 91 0f 01 	lds	r19, 0x010F	; 0x80010f <WS2812_1+0x3>
    1b50:	f9 01       	movw	r30, r18
    1b52:	20 81       	ld	r18, Z
    1b54:	62 2f       	mov	r22, r18
    1b56:	20 91 10 01 	lds	r18, 0x0110	; 0x800110 <WS2812_1+0x4>
    1b5a:	42 2f       	mov	r20, r18
    1b5c:	50 e0       	ldi	r21, 0x00	; 0
    1b5e:	21 e0       	ldi	r18, 0x01	; 1
    1b60:	30 e0       	ldi	r19, 0x00	; 0
    1b62:	02 c0       	rjmp	.+4      	; 0x1b68 <WS2812_Set_Colour+0x3c>
    1b64:	22 0f       	add	r18, r18
    1b66:	33 1f       	adc	r19, r19
    1b68:	4a 95       	dec	r20
    1b6a:	e2 f7       	brpl	.-8      	; 0x1b64 <WS2812_Set_Colour+0x38>
    1b6c:	20 95       	com	r18
    1b6e:	26 23       	and	r18, r22
    1b70:	fc 01       	movw	r30, r24
    1b72:	20 83       	st	Z, r18
    1b74:	80 91 0e 01 	lds	r24, 0x010E	; 0x80010e <WS2812_1+0x2>
    1b78:	90 91 0f 01 	lds	r25, 0x010F	; 0x80010f <WS2812_1+0x3>
    1b7c:	90 93 be 01 	sts	0x01BE, r25	; 0x8001be <PtrPort+0x1>
    1b80:	80 93 bd 01 	sts	0x01BD, r24	; 0x8001bd <PtrPort>
    1b84:	80 91 10 01 	lds	r24, 0x0110	; 0x800110 <WS2812_1+0x4>
    1b88:	80 93 b7 01 	sts	0x01B7, r24	; 0x8001b7 <ucPin>
    1b8c:	89 81       	ldd	r24, Y+1	; 0x01
    1b8e:	9a 81       	ldd	r25, Y+2	; 0x02
    1b90:	90 93 bc 01 	sts	0x01BC, r25	; 0x8001bc <PtrColourList+0x1>
    1b94:	80 93 bb 01 	sts	0x01BB, r24	; 0x8001bb <PtrColourList>
    1b98:	ce 01       	movw	r24, r28
    1b9a:	03 96       	adiw	r24, 0x03	; 3
    1b9c:	90 93 b9 01 	sts	0x01B9, r25	; 0x8001b9 <PtrLedNumber+0x1>
    1ba0:	80 93 b8 01 	sts	0x01B8, r24	; 0x8001b8 <PtrLedNumber>
    1ba4:	f8 94       	cli
    1ba6:	3f 93       	push	r19
    1ba8:	4f 93       	push	r20
    1baa:	5f 93       	push	r21
    1bac:	6f 93       	push	r22
    1bae:	7f 93       	push	r23
    1bb0:	8f 93       	push	r24
    1bb2:	9f 93       	push	r25
    1bb4:	af 93       	push	r26
    1bb6:	bf 93       	push	r27
    1bb8:	cf 93       	push	r28
    1bba:	df 93       	push	r29
    1bbc:	ef 93       	push	r30
    1bbe:	ff 93       	push	r31
    1bc0:	90 91 b7 01 	lds	r25, 0x01B7	; 0x8001b7 <ucPin>
    1bc4:	a0 91 bb 01 	lds	r26, 0x01BB	; 0x8001bb <PtrColourList>
    1bc8:	b0 91 bc 01 	lds	r27, 0x01BC	; 0x8001bc <PtrColourList+0x1>
    1bcc:	e0 91 b8 01 	lds	r30, 0x01B8	; 0x8001b8 <PtrLedNumber>
    1bd0:	f0 91 b9 01 	lds	r31, 0x01B9	; 0x8001b9 <PtrLedNumber+0x1>
    1bd4:	c1 91       	ld	r28, Z+
    1bd6:	d0 81       	ld	r29, Z
    1bd8:	e0 91 bd 01 	lds	r30, 0x01BD	; 0x8001bd <PtrPort>
    1bdc:	f0 e0       	ldi	r31, 0x00	; 0
    1bde:	41 e0       	ldi	r20, 0x01	; 1

00001be0 <repeat>:
    1be0:	90 30       	cpi	r25, 0x00	; 0
    1be2:	19 f0       	breq	.+6      	; 0x1bea <label1>
    1be4:	9a 95       	dec	r25
    1be6:	44 0f       	add	r20, r20
    1be8:	fb cf       	rjmp	.-10     	; 0x1be0 <repeat>

00001bea <label1>:
    1bea:	34 2f       	mov	r19, r20
    1bec:	30 95       	com	r19

00001bee <loop>:
    1bee:	7e ef       	ldi	r23, 0xFE	; 254
    1bf0:	8d 91       	ld	r24, X+

00001bf2 <out>:
    1bf2:	88 0f       	add	r24, r24
    1bf4:	60 f0       	brcs	.+24     	; 0x1c0e <set1>

00001bf6 <set0>:
    1bf6:	50 81       	ld	r21, Z
    1bf8:	54 2b       	or	r21, r20
    1bfa:	50 83       	st	Z, r21
    1bfc:	50 81       	ld	r21, Z
    1bfe:	53 23       	and	r21, r19
    1c00:	50 83       	st	Z, r21
	...
    1c0a:	00 00       	nop
    1c0c:	0c c0       	rjmp	.+24     	; 0x1c26 <rot1>

00001c0e <set1>:
    1c0e:	50 81       	ld	r21, Z
    1c10:	54 2b       	or	r21, r20
    1c12:	50 83       	st	Z, r21
	...
    1c20:	50 81       	ld	r21, Z
    1c22:	53 23       	and	r21, r19
    1c24:	50 83       	st	Z, r21

00001c26 <rot1>:
    1c26:	77 0f       	add	r23, r23
    1c28:	20 f3       	brcs	.-56     	; 0x1bf2 <out>
    1c2a:	21 97       	sbiw	r28, 0x01	; 1
    1c2c:	00 f7       	brcc	.-64     	; 0x1bee <loop>
    1c2e:	ff 91       	pop	r31
    1c30:	ef 91       	pop	r30
    1c32:	df 91       	pop	r29
    1c34:	cf 91       	pop	r28
    1c36:	bf 91       	pop	r27
    1c38:	af 91       	pop	r26
    1c3a:	9f 91       	pop	r25
    1c3c:	8f 91       	pop	r24
    1c3e:	7f 91       	pop	r23
    1c40:	6f 91       	pop	r22
    1c42:	5f 91       	pop	r21
    1c44:	4f 91       	pop	r20
    1c46:	3f 91       	pop	r19
    1c48:	78 94       	sei
    1c4a:	00 00       	nop
    1c4c:	0f 90       	pop	r0
    1c4e:	0f 90       	pop	r0
    1c50:	0f 90       	pop	r0
    1c52:	0f 90       	pop	r0
    1c54:	df 91       	pop	r29
    1c56:	cf 91       	pop	r28
    1c58:	08 95       	ret

00001c5a <WS2812_Step>:
    1c5a:	cf 93       	push	r28
    1c5c:	df 93       	push	r29
    1c5e:	1f 92       	push	r1
    1c60:	cd b7       	in	r28, 0x3d	; 61
    1c62:	de b7       	in	r29, 0x3e	; 62
    1c64:	89 83       	std	Y+1, r24	; 0x01
    1c66:	89 81       	ldd	r24, Y+1	; 0x01
    1c68:	28 2f       	mov	r18, r24
    1c6a:	30 e0       	ldi	r19, 0x00	; 0
    1c6c:	c9 01       	movw	r24, r18
    1c6e:	88 0f       	add	r24, r24
    1c70:	99 1f       	adc	r25, r25
    1c72:	82 0f       	add	r24, r18
    1c74:	93 1f       	adc	r25, r19
    1c76:	87 5c       	subi	r24, 0xC7	; 199
    1c78:	9e 4f       	sbci	r25, 0xFE	; 254
    1c7a:	62 e0       	ldi	r22, 0x02	; 2
    1c7c:	70 e0       	ldi	r23, 0x00	; 0
    1c7e:	56 df       	rcall	.-340    	; 0x1b2c <WS2812_Set_Colour>
    1c80:	00 00       	nop
    1c82:	0f 90       	pop	r0
    1c84:	df 91       	pop	r29
    1c86:	cf 91       	pop	r28
    1c88:	08 95       	ret

00001c8a <__udivmodhi4>:
    1c8a:	aa 1b       	sub	r26, r26
    1c8c:	bb 1b       	sub	r27, r27
    1c8e:	51 e1       	ldi	r21, 0x11	; 17
    1c90:	07 c0       	rjmp	.+14     	; 0x1ca0 <__udivmodhi4_ep>

00001c92 <__udivmodhi4_loop>:
    1c92:	aa 1f       	adc	r26, r26
    1c94:	bb 1f       	adc	r27, r27
    1c96:	a6 17       	cp	r26, r22
    1c98:	b7 07       	cpc	r27, r23
    1c9a:	10 f0       	brcs	.+4      	; 0x1ca0 <__udivmodhi4_ep>
    1c9c:	a6 1b       	sub	r26, r22
    1c9e:	b7 0b       	sbc	r27, r23

00001ca0 <__udivmodhi4_ep>:
    1ca0:	88 1f       	adc	r24, r24
    1ca2:	99 1f       	adc	r25, r25
    1ca4:	5a 95       	dec	r21
    1ca6:	a9 f7       	brne	.-22     	; 0x1c92 <__udivmodhi4_loop>
    1ca8:	80 95       	com	r24
    1caa:	90 95       	com	r25
    1cac:	bc 01       	movw	r22, r24
    1cae:	cd 01       	movw	r24, r26
    1cb0:	08 95       	ret

00001cb2 <__divmodhi4>:
    1cb2:	97 fb       	bst	r25, 7
    1cb4:	07 2e       	mov	r0, r23
    1cb6:	16 f4       	brtc	.+4      	; 0x1cbc <__divmodhi4+0xa>
    1cb8:	00 94       	com	r0
    1cba:	06 d0       	rcall	.+12     	; 0x1cc8 <__divmodhi4_neg1>
    1cbc:	77 fd       	sbrc	r23, 7
    1cbe:	08 d0       	rcall	.+16     	; 0x1cd0 <__divmodhi4_neg2>
    1cc0:	e4 df       	rcall	.-56     	; 0x1c8a <__udivmodhi4>
    1cc2:	07 fc       	sbrc	r0, 7
    1cc4:	05 d0       	rcall	.+10     	; 0x1cd0 <__divmodhi4_neg2>
    1cc6:	3e f4       	brtc	.+14     	; 0x1cd6 <__divmodhi4_exit>

00001cc8 <__divmodhi4_neg1>:
    1cc8:	90 95       	com	r25
    1cca:	81 95       	neg	r24
    1ccc:	9f 4f       	sbci	r25, 0xFF	; 255
    1cce:	08 95       	ret

00001cd0 <__divmodhi4_neg2>:
    1cd0:	70 95       	com	r23
    1cd2:	61 95       	neg	r22
    1cd4:	7f 4f       	sbci	r23, 0xFF	; 255

00001cd6 <__divmodhi4_exit>:
    1cd6:	08 95       	ret

00001cd8 <_exit>:
    1cd8:	f8 94       	cli

00001cda <__stop_program>:
    1cda:	ff cf       	rjmp	.-2      	; 0x1cda <__stop_program>
