
Heizkoerperthermostat.elf:     file format elf32-avr

Sections:
Idx Name          Size      VMA       LMA       File off  Algn
  0 .data         0000006e  00800100  000015fa  0000168e  2**0
                  CONTENTS, ALLOC, LOAD, DATA
  1 .text         000015fa  00000000  00000000  00000094  2**1
                  CONTENTS, ALLOC, LOAD, READONLY, CODE
  2 .bss          0000001b  0080016e  0080016e  000016fc  2**0
                  ALLOC
  3 .comment      00000030  00000000  00000000  000016fc  2**0
                  CONTENTS, READONLY
  4 .note.gnu.avr.deviceinfo 00000040  00000000  00000000  0000172c  2**2
                  CONTENTS, READONLY
  5 .debug_aranges 00000418  00000000  00000000  0000176c  2**0
                  CONTENTS, READONLY, DEBUGGING
  6 .debug_info   0000263b  00000000  00000000  00001b84  2**0
                  CONTENTS, READONLY, DEBUGGING
  7 .debug_abbrev 0000101a  00000000  00000000  000041bf  2**0
                  CONTENTS, READONLY, DEBUGGING
  8 .debug_line   00001fea  00000000  00000000  000051d9  2**0
                  CONTENTS, READONLY, DEBUGGING
  9 .debug_frame  00000d30  00000000  00000000  000071c4  2**2
                  CONTENTS, READONLY, DEBUGGING
 10 .debug_str    000010b8  00000000  00000000  00007ef4  2**0
                  CONTENTS, READONLY, DEBUGGING
 11 .debug_loc    00001934  00000000  00000000  00008fac  2**0
                  CONTENTS, READONLY, DEBUGGING
 12 .debug_ranges 00000338  00000000  00000000  0000a8e0  2**0
                  CONTENTS, READONLY, DEBUGGING

Disassembly of section .text:

00000000 <__vectors>:
       0:	19 c0       	rjmp	.+50     	; 0x34 <__ctors_end>
       2:	33 c0       	rjmp	.+102    	; 0x6a <__bad_interrupt>
       4:	32 c0       	rjmp	.+100    	; 0x6a <__bad_interrupt>
       6:	31 c0       	rjmp	.+98     	; 0x6a <__bad_interrupt>
       8:	30 c0       	rjmp	.+96     	; 0x6a <__bad_interrupt>
       a:	2f c0       	rjmp	.+94     	; 0x6a <__bad_interrupt>
       c:	2e c0       	rjmp	.+92     	; 0x6a <__bad_interrupt>
       e:	f4 c6       	rjmp	.+3560   	; 0xdf8 <__vector_7>
      10:	2c c0       	rjmp	.+88     	; 0x6a <__bad_interrupt>
      12:	2b c0       	rjmp	.+86     	; 0x6a <__bad_interrupt>
      14:	2a c0       	rjmp	.+84     	; 0x6a <__bad_interrupt>
      16:	9c c6       	rjmp	.+3384   	; 0xd50 <__vector_11>
      18:	28 c0       	rjmp	.+80     	; 0x6a <__bad_interrupt>
      1a:	27 c0       	rjmp	.+78     	; 0x6a <__bad_interrupt>
      1c:	26 c0       	rjmp	.+76     	; 0x6a <__bad_interrupt>
      1e:	25 c0       	rjmp	.+74     	; 0x6a <__bad_interrupt>
      20:	24 c0       	rjmp	.+72     	; 0x6a <__bad_interrupt>
      22:	23 c0       	rjmp	.+70     	; 0x6a <__bad_interrupt>
      24:	22 c0       	rjmp	.+68     	; 0x6a <__bad_interrupt>
      26:	21 c0       	rjmp	.+66     	; 0x6a <__bad_interrupt>
      28:	20 c0       	rjmp	.+64     	; 0x6a <__bad_interrupt>
      2a:	1f c0       	rjmp	.+62     	; 0x6a <__bad_interrupt>
      2c:	1e c0       	rjmp	.+60     	; 0x6a <__bad_interrupt>
      2e:	1d c0       	rjmp	.+58     	; 0x6a <__bad_interrupt>
      30:	d1 c9       	rjmp	.-3166   	; 0xfffff3d4 <__eeprom_end+0xff7ef3d4>
      32:	1b c0       	rjmp	.+54     	; 0x6a <__bad_interrupt>

00000034 <__ctors_end>:
      34:	11 24       	eor	r1, r1
      36:	1f be       	out	0x3f, r1	; 63
      38:	cf ef       	ldi	r28, 0xFF	; 255
      3a:	d4 e0       	ldi	r29, 0x04	; 4
      3c:	de bf       	out	0x3e, r29	; 62
      3e:	cd bf       	out	0x3d, r28	; 61

00000040 <__do_copy_data>:
      40:	11 e0       	ldi	r17, 0x01	; 1
      42:	a0 e0       	ldi	r26, 0x00	; 0
      44:	b1 e0       	ldi	r27, 0x01	; 1
      46:	ea ef       	ldi	r30, 0xFA	; 250
      48:	f5 e1       	ldi	r31, 0x15	; 21
      4a:	02 c0       	rjmp	.+4      	; 0x50 <__do_copy_data+0x10>
      4c:	05 90       	lpm	r0, Z+
      4e:	0d 92       	st	X+, r0
      50:	ae 36       	cpi	r26, 0x6E	; 110
      52:	b1 07       	cpc	r27, r17
      54:	d9 f7       	brne	.-10     	; 0x4c <__do_copy_data+0xc>

00000056 <__do_clear_bss>:
      56:	21 e0       	ldi	r18, 0x01	; 1
      58:	ae e6       	ldi	r26, 0x6E	; 110
      5a:	b1 e0       	ldi	r27, 0x01	; 1
      5c:	01 c0       	rjmp	.+2      	; 0x60 <.do_clear_bss_start>

0000005e <.do_clear_bss_loop>:
      5e:	1d 92       	st	X+, r1

00000060 <.do_clear_bss_start>:
      60:	a9 38       	cpi	r26, 0x89	; 137
      62:	b2 07       	cpc	r27, r18
      64:	e1 f7       	brne	.-8      	; 0x5e <.do_clear_bss_loop>
      66:	7e d3       	rcall	.+1788   	; 0x764 <main>
      68:	c6 ca       	rjmp	.-2676   	; 0xfffff5f6 <__eeprom_end+0xff7ef5f6>

0000006a <__bad_interrupt>:
      6a:	ca cf       	rjmp	.-108    	; 0x0 <__vectors>

0000006c <TempController>:
uint8_t uRed[3] = {0/*green*/,7/*red*/,0/*blue*/};
//============================================================

//Definition of funcitons
void TempController(int actualTemp, int targetTemp)
{
      6c:	cf 93       	push	r28
      6e:	df 93       	push	r29
      70:	00 d0       	rcall	.+0      	; 0x72 <TempController+0x6>
      72:	00 d0       	rcall	.+0      	; 0x74 <TempController+0x8>
      74:	00 d0       	rcall	.+0      	; 0x76 <TempController+0xa>
      76:	cd b7       	in	r28, 0x3d	; 61
      78:	de b7       	in	r29, 0x3e	; 62
      7a:	9c 83       	std	Y+4, r25	; 0x04
      7c:	8b 83       	std	Y+3, r24	; 0x03
      7e:	7e 83       	std	Y+6, r23	; 0x06
      80:	6d 83       	std	Y+5, r22	; 0x05
	//Date :			4.11.22
	//Author:			Moritz
	//Source:
	//Status:			released
	//--------------------------------
	int iDelta = targetTemp - actualTemp;
      82:	2d 81       	ldd	r18, Y+5	; 0x05
      84:	3e 81       	ldd	r19, Y+6	; 0x06
      86:	8b 81       	ldd	r24, Y+3	; 0x03
      88:	9c 81       	ldd	r25, Y+4	; 0x04
      8a:	a9 01       	movw	r20, r18
      8c:	48 1b       	sub	r20, r24
      8e:	59 0b       	sbc	r21, r25
      90:	ca 01       	movw	r24, r20
      92:	9a 83       	std	Y+2, r25	; 0x02
      94:	89 83       	std	Y+1, r24	; 0x01
	if (iDelta <= 20)/*Heating Step 1*/
      96:	89 81       	ldd	r24, Y+1	; 0x01
      98:	9a 81       	ldd	r25, Y+2	; 0x02
      9a:	45 97       	sbiw	r24, 0x15	; 21
      9c:	4c f4       	brge	.+18     	; 0xb0 <TempController+0x44>
	{
		WS2812_Set_Colour(uGreen,2);
      9e:	62 e0       	ldi	r22, 0x02	; 2
      a0:	70 e0       	ldi	r23, 0x00	; 0
      a2:	80 e0       	ldi	r24, 0x00	; 0
      a4:	91 e0       	ldi	r25, 0x01	; 1
      a6:	e9 d9       	rcall	.-3118   	; 0xfffff47a <__eeprom_end+0xff7ef47a>
		Servo_Set_Position(0);
      a8:	80 e0       	ldi	r24, 0x00	; 0
      aa:	90 e0       	ldi	r25, 0x00	; 0
      ac:	19 d5       	rcall	.+2610   	; 0xae0 <Servo_Set_Position>
	else if (iDelta <= 120)/*Heating Step 6*/
	{
		WS2812_Set_Colour(uRed,2);
		Servo_Set_Position(5);	
	}
      ae:	43 c0       	rjmp	.+134    	; 0x136 <TempController+0xca>
	if (iDelta <= 20)/*Heating Step 1*/
	{
		WS2812_Set_Colour(uGreen,2);
		Servo_Set_Position(0);
	}
	else if (iDelta <= 40)/*Heating Step 2*/
      b0:	89 81       	ldd	r24, Y+1	; 0x01
      b2:	9a 81       	ldd	r25, Y+2	; 0x02
      b4:	89 97       	sbiw	r24, 0x29	; 41
      b6:	4c f4       	brge	.+18     	; 0xca <TempController+0x5e>
	{
		WS2812_Set_Colour(uBrightGreen,2);
      b8:	62 e0       	ldi	r22, 0x02	; 2
      ba:	70 e0       	ldi	r23, 0x00	; 0
      bc:	83 e0       	ldi	r24, 0x03	; 3
      be:	91 e0       	ldi	r25, 0x01	; 1
      c0:	dc d9       	rcall	.-3144   	; 0xfffff47a <__eeprom_end+0xff7ef47a>
		Servo_Set_Position(1);
      c2:	81 e0       	ldi	r24, 0x01	; 1
      c4:	90 e0       	ldi	r25, 0x00	; 0
      c6:	0c d5       	rcall	.+2584   	; 0xae0 <Servo_Set_Position>
	else if (iDelta <= 120)/*Heating Step 6*/
	{
		WS2812_Set_Colour(uRed,2);
		Servo_Set_Position(5);	
	}
      c8:	36 c0       	rjmp	.+108    	; 0x136 <TempController+0xca>
	else if (iDelta <= 40)/*Heating Step 2*/
	{
		WS2812_Set_Colour(uBrightGreen,2);
		Servo_Set_Position(1);
	}
	else if (iDelta <= 60)/*Heating Step 3*/
      ca:	89 81       	ldd	r24, Y+1	; 0x01
      cc:	9a 81       	ldd	r25, Y+2	; 0x02
      ce:	cd 97       	sbiw	r24, 0x3d	; 61
      d0:	4c f4       	brge	.+18     	; 0xe4 <TempController+0x78>
	{
		WS2812_Set_Colour(uYellow,2);
      d2:	62 e0       	ldi	r22, 0x02	; 2
      d4:	70 e0       	ldi	r23, 0x00	; 0
      d6:	86 e0       	ldi	r24, 0x06	; 6
      d8:	91 e0       	ldi	r25, 0x01	; 1
      da:	cf d9       	rcall	.-3170   	; 0xfffff47a <__eeprom_end+0xff7ef47a>
		Servo_Set_Position(2);
      dc:	82 e0       	ldi	r24, 0x02	; 2
      de:	90 e0       	ldi	r25, 0x00	; 0
      e0:	ff d4       	rcall	.+2558   	; 0xae0 <Servo_Set_Position>
	else if (iDelta <= 120)/*Heating Step 6*/
	{
		WS2812_Set_Colour(uRed,2);
		Servo_Set_Position(5);	
	}
      e2:	29 c0       	rjmp	.+82     	; 0x136 <TempController+0xca>
	else if (iDelta <= 60)/*Heating Step 3*/
	{
		WS2812_Set_Colour(uYellow,2);
		Servo_Set_Position(2);
	}
	else if (iDelta <= 80)/*Heating Step 4*/
      e4:	89 81       	ldd	r24, Y+1	; 0x01
      e6:	9a 81       	ldd	r25, Y+2	; 0x02
      e8:	81 35       	cpi	r24, 0x51	; 81
      ea:	91 05       	cpc	r25, r1
      ec:	4c f4       	brge	.+18     	; 0x100 <TempController+0x94>
	{
		WS2812_Set_Colour(uOrange,2);
      ee:	62 e0       	ldi	r22, 0x02	; 2
      f0:	70 e0       	ldi	r23, 0x00	; 0
      f2:	89 e0       	ldi	r24, 0x09	; 9
      f4:	91 e0       	ldi	r25, 0x01	; 1
      f6:	c1 d9       	rcall	.-3198   	; 0xfffff47a <__eeprom_end+0xff7ef47a>
		Servo_Set_Position(3);
      f8:	83 e0       	ldi	r24, 0x03	; 3
      fa:	90 e0       	ldi	r25, 0x00	; 0
      fc:	f1 d4       	rcall	.+2530   	; 0xae0 <Servo_Set_Position>
	else if (iDelta <= 120)/*Heating Step 6*/
	{
		WS2812_Set_Colour(uRed,2);
		Servo_Set_Position(5);	
	}
      fe:	1b c0       	rjmp	.+54     	; 0x136 <TempController+0xca>
	else if (iDelta <= 80)/*Heating Step 4*/
	{
		WS2812_Set_Colour(uOrange,2);
		Servo_Set_Position(3);
	}
	else if (iDelta <= 100)/*Heating Step 5*/
     100:	89 81       	ldd	r24, Y+1	; 0x01
     102:	9a 81       	ldd	r25, Y+2	; 0x02
     104:	85 36       	cpi	r24, 0x65	; 101
     106:	91 05       	cpc	r25, r1
     108:	4c f4       	brge	.+18     	; 0x11c <TempController+0xb0>
	{
		WS2812_Set_Colour(uMagenta,2);
     10a:	62 e0       	ldi	r22, 0x02	; 2
     10c:	70 e0       	ldi	r23, 0x00	; 0
     10e:	8c e0       	ldi	r24, 0x0C	; 12
     110:	91 e0       	ldi	r25, 0x01	; 1
     112:	b3 d9       	rcall	.-3226   	; 0xfffff47a <__eeprom_end+0xff7ef47a>
		Servo_Set_Position(4);
     114:	84 e0       	ldi	r24, 0x04	; 4
     116:	90 e0       	ldi	r25, 0x00	; 0
     118:	e3 d4       	rcall	.+2502   	; 0xae0 <Servo_Set_Position>
	else if (iDelta <= 120)/*Heating Step 6*/
	{
		WS2812_Set_Colour(uRed,2);
		Servo_Set_Position(5);	
	}
     11a:	0d c0       	rjmp	.+26     	; 0x136 <TempController+0xca>
	else if (iDelta <= 100)/*Heating Step 5*/
	{
		WS2812_Set_Colour(uMagenta,2);
		Servo_Set_Position(4);
	}
	else if (iDelta <= 120)/*Heating Step 6*/
     11c:	89 81       	ldd	r24, Y+1	; 0x01
     11e:	9a 81       	ldd	r25, Y+2	; 0x02
     120:	89 37       	cpi	r24, 0x79	; 121
     122:	91 05       	cpc	r25, r1
     124:	44 f4       	brge	.+16     	; 0x136 <TempController+0xca>
	{
		WS2812_Set_Colour(uRed,2);
     126:	62 e0       	ldi	r22, 0x02	; 2
     128:	70 e0       	ldi	r23, 0x00	; 0
     12a:	8f e0       	ldi	r24, 0x0F	; 15
     12c:	91 e0       	ldi	r25, 0x01	; 1
     12e:	a5 d9       	rcall	.-3254   	; 0xfffff47a <__eeprom_end+0xff7ef47a>
		Servo_Set_Position(5);	
     130:	85 e0       	ldi	r24, 0x05	; 5
     132:	90 e0       	ldi	r25, 0x00	; 0
     134:	d5 d4       	rcall	.+2474   	; 0xae0 <Servo_Set_Position>
	}
     136:	00 00       	nop
     138:	26 96       	adiw	r28, 0x06	; 6
     13a:	0f b6       	in	r0, 0x3f	; 63
     13c:	f8 94       	cli
     13e:	de bf       	out	0x3e, r29	; 62
     140:	0f be       	out	0x3f, r0	; 63
     142:	cd bf       	out	0x3d, r28	; 61
     144:	df 91       	pop	r29
     146:	cf 91       	pop	r28
     148:	08 95       	ret

0000014a <Display_HardwareInit>:
	Display_RS_Low();		//RS-Leitung auf low, Befehls-Register vom Display wird angewählt

	Display_Transfer4BitData(Options);	//Funktionscode wird übertragen
	Display_RS_High();		//RS-Leitung geht auf high
	Display_delay(DISPLAY_CURSOR_OR_DISPLAY_SHIFT_DELAY);	//warten auf das Ausführen des Befehls
}
     14a:	cf 93       	push	r28
     14c:	df 93       	push	r29
     14e:	cd b7       	in	r28, 0x3d	; 61
     150:	de b7       	in	r29, 0x3e	; 62
     152:	d4 d0       	rcall	.+424    	; 0x2fc <Display_DATA_Output>
     154:	6d d0       	rcall	.+218    	; 0x230 <Display_RS_Output>
     156:	9f d0       	rcall	.+318    	; 0x296 <Display_EN_Output>
     158:	00 00       	nop
     15a:	df 91       	pop	r29
     15c:	cf 91       	pop	r28
     15e:	08 95       	ret

00000160 <Display_delay>:
     160:	cf 93       	push	r28
     162:	df 93       	push	r29
     164:	cd b7       	in	r28, 0x3d	; 61
     166:	de b7       	in	r29, 0x3e	; 62
     168:	2c 97       	sbiw	r28, 0x0c	; 12
     16a:	0f b6       	in	r0, 0x3f	; 63
     16c:	f8 94       	cli
     16e:	de bf       	out	0x3e, r29	; 62
     170:	0f be       	out	0x3f, r0	; 63
     172:	cd bf       	out	0x3d, r28	; 61
     174:	69 87       	std	Y+9, r22	; 0x09
     176:	7a 87       	std	Y+10, r23	; 0x0a
     178:	8b 87       	std	Y+11, r24	; 0x0b
     17a:	9c 87       	std	Y+12, r25	; 0x0c
     17c:	89 85       	ldd	r24, Y+9	; 0x09
     17e:	9a 85       	ldd	r25, Y+10	; 0x0a
     180:	ab 85       	ldd	r26, Y+11	; 0x0b
     182:	bc 85       	ldd	r27, Y+12	; 0x0c
     184:	8d 83       	std	Y+5, r24	; 0x05
     186:	9e 83       	std	Y+6, r25	; 0x06
     188:	af 83       	std	Y+7, r26	; 0x07
     18a:	b8 87       	std	Y+8, r27	; 0x08
     18c:	19 82       	std	Y+1, r1	; 0x01
     18e:	1a 82       	std	Y+2, r1	; 0x02
     190:	1b 82       	std	Y+3, r1	; 0x03
     192:	1c 82       	std	Y+4, r1	; 0x04
     194:	0b c0       	rjmp	.+22     	; 0x1ac <Display_delay+0x4c>
     196:	89 81       	ldd	r24, Y+1	; 0x01
     198:	9a 81       	ldd	r25, Y+2	; 0x02
     19a:	ab 81       	ldd	r26, Y+3	; 0x03
     19c:	bc 81       	ldd	r27, Y+4	; 0x04
     19e:	01 96       	adiw	r24, 0x01	; 1
     1a0:	a1 1d       	adc	r26, r1
     1a2:	b1 1d       	adc	r27, r1
     1a4:	89 83       	std	Y+1, r24	; 0x01
     1a6:	9a 83       	std	Y+2, r25	; 0x02
     1a8:	ab 83       	std	Y+3, r26	; 0x03
     1aa:	bc 83       	std	Y+4, r27	; 0x04
     1ac:	29 81       	ldd	r18, Y+1	; 0x01
     1ae:	3a 81       	ldd	r19, Y+2	; 0x02
     1b0:	4b 81       	ldd	r20, Y+3	; 0x03
     1b2:	5c 81       	ldd	r21, Y+4	; 0x04
     1b4:	8d 81       	ldd	r24, Y+5	; 0x05
     1b6:	9e 81       	ldd	r25, Y+6	; 0x06
     1b8:	af 81       	ldd	r26, Y+7	; 0x07
     1ba:	b8 85       	ldd	r27, Y+8	; 0x08
     1bc:	28 17       	cp	r18, r24
     1be:	39 07       	cpc	r19, r25
     1c0:	4a 07       	cpc	r20, r26
     1c2:	5b 07       	cpc	r21, r27
     1c4:	40 f3       	brcs	.-48     	; 0x196 <Display_delay+0x36>
     1c6:	00 00       	nop
     1c8:	2c 96       	adiw	r28, 0x0c	; 12
     1ca:	0f b6       	in	r0, 0x3f	; 63
     1cc:	f8 94       	cli
     1ce:	de bf       	out	0x3e, r29	; 62
     1d0:	0f be       	out	0x3f, r0	; 63
     1d2:	cd bf       	out	0x3d, r28	; 61
     1d4:	df 91       	pop	r29
     1d6:	cf 91       	pop	r28
     1d8:	08 95       	ret

000001da <Display_Aus>:
     1da:	cf 93       	push	r28
     1dc:	df 93       	push	r29
     1de:	cd b7       	in	r28, 0x3d	; 61
     1e0:	de b7       	in	r29, 0x3e	; 62
     1e2:	8a e2       	ldi	r24, 0x2A	; 42
     1e4:	90 e0       	ldi	r25, 0x00	; 0
     1e6:	2a e2       	ldi	r18, 0x2A	; 42
     1e8:	30 e0       	ldi	r19, 0x00	; 0
     1ea:	f9 01       	movw	r30, r18
     1ec:	20 81       	ld	r18, Z
     1ee:	20 68       	ori	r18, 0x80	; 128
     1f0:	fc 01       	movw	r30, r24
     1f2:	20 83       	st	Z, r18
     1f4:	8b e2       	ldi	r24, 0x2B	; 43
     1f6:	90 e0       	ldi	r25, 0x00	; 0
     1f8:	2b e2       	ldi	r18, 0x2B	; 43
     1fa:	30 e0       	ldi	r19, 0x00	; 0
     1fc:	f9 01       	movw	r30, r18
     1fe:	20 81       	ld	r18, Z
     200:	2f 77       	andi	r18, 0x7F	; 127
     202:	fc 01       	movw	r30, r24
     204:	20 83       	st	Z, r18
     206:	00 00       	nop
     208:	df 91       	pop	r29
     20a:	cf 91       	pop	r28
     20c:	08 95       	ret

0000020e <Display_An>:
     20e:	cf 93       	push	r28
     210:	df 93       	push	r29
     212:	cd b7       	in	r28, 0x3d	; 61
     214:	de b7       	in	r29, 0x3e	; 62
     216:	8b e2       	ldi	r24, 0x2B	; 43
     218:	90 e0       	ldi	r25, 0x00	; 0
     21a:	2b e2       	ldi	r18, 0x2B	; 43
     21c:	30 e0       	ldi	r19, 0x00	; 0
     21e:	f9 01       	movw	r30, r18
     220:	20 81       	ld	r18, Z
     222:	20 68       	ori	r18, 0x80	; 128
     224:	fc 01       	movw	r30, r24
     226:	20 83       	st	Z, r18
     228:	00 00       	nop
     22a:	df 91       	pop	r29
     22c:	cf 91       	pop	r28
     22e:	08 95       	ret

00000230 <Display_RS_Output>:
     230:	cf 93       	push	r28
     232:	df 93       	push	r29
     234:	cd b7       	in	r28, 0x3d	; 61
     236:	de b7       	in	r29, 0x3e	; 62
     238:	84 e2       	ldi	r24, 0x24	; 36
     23a:	90 e0       	ldi	r25, 0x00	; 0
     23c:	24 e2       	ldi	r18, 0x24	; 36
     23e:	30 e0       	ldi	r19, 0x00	; 0
     240:	f9 01       	movw	r30, r18
     242:	20 81       	ld	r18, Z
     244:	21 60       	ori	r18, 0x01	; 1
     246:	fc 01       	movw	r30, r24
     248:	20 83       	st	Z, r18
     24a:	00 00       	nop
     24c:	df 91       	pop	r29
     24e:	cf 91       	pop	r28
     250:	08 95       	ret

00000252 <Display_RS_High>:
     252:	cf 93       	push	r28
     254:	df 93       	push	r29
     256:	cd b7       	in	r28, 0x3d	; 61
     258:	de b7       	in	r29, 0x3e	; 62
     25a:	85 e2       	ldi	r24, 0x25	; 37
     25c:	90 e0       	ldi	r25, 0x00	; 0
     25e:	25 e2       	ldi	r18, 0x25	; 37
     260:	30 e0       	ldi	r19, 0x00	; 0
     262:	f9 01       	movw	r30, r18
     264:	20 81       	ld	r18, Z
     266:	21 60       	ori	r18, 0x01	; 1
     268:	fc 01       	movw	r30, r24
     26a:	20 83       	st	Z, r18
     26c:	00 00       	nop
     26e:	df 91       	pop	r29
     270:	cf 91       	pop	r28
     272:	08 95       	ret

00000274 <Display_RS_Low>:
     274:	cf 93       	push	r28
     276:	df 93       	push	r29
     278:	cd b7       	in	r28, 0x3d	; 61
     27a:	de b7       	in	r29, 0x3e	; 62
     27c:	85 e2       	ldi	r24, 0x25	; 37
     27e:	90 e0       	ldi	r25, 0x00	; 0
     280:	25 e2       	ldi	r18, 0x25	; 37
     282:	30 e0       	ldi	r19, 0x00	; 0
     284:	f9 01       	movw	r30, r18
     286:	20 81       	ld	r18, Z
     288:	2e 7f       	andi	r18, 0xFE	; 254
     28a:	fc 01       	movw	r30, r24
     28c:	20 83       	st	Z, r18
     28e:	00 00       	nop
     290:	df 91       	pop	r29
     292:	cf 91       	pop	r28
     294:	08 95       	ret

00000296 <Display_EN_Output>:
     296:	cf 93       	push	r28
     298:	df 93       	push	r29
     29a:	cd b7       	in	r28, 0x3d	; 61
     29c:	de b7       	in	r29, 0x3e	; 62
     29e:	84 e2       	ldi	r24, 0x24	; 36
     2a0:	90 e0       	ldi	r25, 0x00	; 0
     2a2:	24 e2       	ldi	r18, 0x24	; 36
     2a4:	30 e0       	ldi	r19, 0x00	; 0
     2a6:	f9 01       	movw	r30, r18
     2a8:	20 81       	ld	r18, Z
     2aa:	22 60       	ori	r18, 0x02	; 2
     2ac:	fc 01       	movw	r30, r24
     2ae:	20 83       	st	Z, r18
     2b0:	00 00       	nop
     2b2:	df 91       	pop	r29
     2b4:	cf 91       	pop	r28
     2b6:	08 95       	ret

000002b8 <Display_EN_High>:
     2b8:	cf 93       	push	r28
     2ba:	df 93       	push	r29
     2bc:	cd b7       	in	r28, 0x3d	; 61
     2be:	de b7       	in	r29, 0x3e	; 62
     2c0:	85 e2       	ldi	r24, 0x25	; 37
     2c2:	90 e0       	ldi	r25, 0x00	; 0
     2c4:	25 e2       	ldi	r18, 0x25	; 37
     2c6:	30 e0       	ldi	r19, 0x00	; 0
     2c8:	f9 01       	movw	r30, r18
     2ca:	20 81       	ld	r18, Z
     2cc:	22 60       	ori	r18, 0x02	; 2
     2ce:	fc 01       	movw	r30, r24
     2d0:	20 83       	st	Z, r18
     2d2:	00 00       	nop
     2d4:	df 91       	pop	r29
     2d6:	cf 91       	pop	r28
     2d8:	08 95       	ret

000002da <Display_EN_Low>:
     2da:	cf 93       	push	r28
     2dc:	df 93       	push	r29
     2de:	cd b7       	in	r28, 0x3d	; 61
     2e0:	de b7       	in	r29, 0x3e	; 62
     2e2:	85 e2       	ldi	r24, 0x25	; 37
     2e4:	90 e0       	ldi	r25, 0x00	; 0
     2e6:	25 e2       	ldi	r18, 0x25	; 37
     2e8:	30 e0       	ldi	r19, 0x00	; 0
     2ea:	f9 01       	movw	r30, r18
     2ec:	20 81       	ld	r18, Z
     2ee:	2d 7f       	andi	r18, 0xFD	; 253
     2f0:	fc 01       	movw	r30, r24
     2f2:	20 83       	st	Z, r18
     2f4:	00 00       	nop
     2f6:	df 91       	pop	r29
     2f8:	cf 91       	pop	r28
     2fa:	08 95       	ret

000002fc <Display_DATA_Output>:
     2fc:	cf 93       	push	r28
     2fe:	df 93       	push	r29
     300:	cd b7       	in	r28, 0x3d	; 61
     302:	de b7       	in	r29, 0x3e	; 62
     304:	87 e2       	ldi	r24, 0x27	; 39
     306:	90 e0       	ldi	r25, 0x00	; 0
     308:	27 e2       	ldi	r18, 0x27	; 39
     30a:	30 e0       	ldi	r19, 0x00	; 0
     30c:	f9 01       	movw	r30, r18
     30e:	20 81       	ld	r18, Z
     310:	2f 60       	ori	r18, 0x0F	; 15
     312:	fc 01       	movw	r30, r24
     314:	20 83       	st	Z, r18
     316:	00 00       	nop
     318:	df 91       	pop	r29
     31a:	cf 91       	pop	r28
     31c:	08 95       	ret

0000031e <Display_DATA_BitHigh>:
     31e:	cf 93       	push	r28
     320:	df 93       	push	r29
     322:	1f 92       	push	r1
     324:	cd b7       	in	r28, 0x3d	; 61
     326:	de b7       	in	r29, 0x3e	; 62
     328:	89 83       	std	Y+1, r24	; 0x01
     32a:	88 e2       	ldi	r24, 0x28	; 40
     32c:	90 e0       	ldi	r25, 0x00	; 0
     32e:	28 e2       	ldi	r18, 0x28	; 40
     330:	30 e0       	ldi	r19, 0x00	; 0
     332:	f9 01       	movw	r30, r18
     334:	20 81       	ld	r18, Z
     336:	62 2f       	mov	r22, r18
     338:	29 81       	ldd	r18, Y+1	; 0x01
     33a:	42 2f       	mov	r20, r18
     33c:	50 e0       	ldi	r21, 0x00	; 0
     33e:	21 e0       	ldi	r18, 0x01	; 1
     340:	30 e0       	ldi	r19, 0x00	; 0
     342:	02 c0       	rjmp	.+4      	; 0x348 <Display_DATA_BitHigh+0x2a>
     344:	22 0f       	add	r18, r18
     346:	33 1f       	adc	r19, r19
     348:	4a 95       	dec	r20
     34a:	e2 f7       	brpl	.-8      	; 0x344 <Display_DATA_BitHigh+0x26>
     34c:	26 2b       	or	r18, r22
     34e:	fc 01       	movw	r30, r24
     350:	20 83       	st	Z, r18
     352:	00 00       	nop
     354:	0f 90       	pop	r0
     356:	df 91       	pop	r29
     358:	cf 91       	pop	r28
     35a:	08 95       	ret

0000035c <Display_DATA_BitLow>:
     35c:	cf 93       	push	r28
     35e:	df 93       	push	r29
     360:	1f 92       	push	r1
     362:	cd b7       	in	r28, 0x3d	; 61
     364:	de b7       	in	r29, 0x3e	; 62
     366:	89 83       	std	Y+1, r24	; 0x01
     368:	88 e2       	ldi	r24, 0x28	; 40
     36a:	90 e0       	ldi	r25, 0x00	; 0
     36c:	28 e2       	ldi	r18, 0x28	; 40
     36e:	30 e0       	ldi	r19, 0x00	; 0
     370:	f9 01       	movw	r30, r18
     372:	20 81       	ld	r18, Z
     374:	62 2f       	mov	r22, r18
     376:	29 81       	ldd	r18, Y+1	; 0x01
     378:	42 2f       	mov	r20, r18
     37a:	50 e0       	ldi	r21, 0x00	; 0
     37c:	21 e0       	ldi	r18, 0x01	; 1
     37e:	30 e0       	ldi	r19, 0x00	; 0
     380:	02 c0       	rjmp	.+4      	; 0x386 <Display_DATA_BitLow+0x2a>
     382:	22 0f       	add	r18, r18
     384:	33 1f       	adc	r19, r19
     386:	4a 95       	dec	r20
     388:	e2 f7       	brpl	.-8      	; 0x382 <Display_DATA_BitLow+0x26>
     38a:	20 95       	com	r18
     38c:	26 23       	and	r18, r22
     38e:	fc 01       	movw	r30, r24
     390:	20 83       	st	Z, r18
     392:	00 00       	nop
     394:	0f 90       	pop	r0
     396:	df 91       	pop	r29
     398:	cf 91       	pop	r28
     39a:	08 95       	ret

0000039c <Display_Clear>:
     39c:	cf 93       	push	r28
     39e:	df 93       	push	r29
     3a0:	cd b7       	in	r28, 0x3d	; 61
     3a2:	de b7       	in	r29, 0x3e	; 62
     3a4:	d2 de       	rcall	.-604    	; 0x14a <Display_HardwareInit>
     3a6:	66 df       	rcall	.-308    	; 0x274 <Display_RS_Low>
     3a8:	81 e0       	ldi	r24, 0x01	; 1
     3aa:	99 d0       	rcall	.+306    	; 0x4de <Display_Transfer4BitData>
     3ac:	52 df       	rcall	.-348    	; 0x252 <Display_RS_High>
     3ae:	60 ea       	ldi	r22, 0xA0	; 160
     3b0:	7f e0       	ldi	r23, 0x0F	; 15
     3b2:	80 e0       	ldi	r24, 0x00	; 0
     3b4:	90 e0       	ldi	r25, 0x00	; 0
     3b6:	d4 de       	rcall	.-600    	; 0x160 <Display_delay>
     3b8:	00 00       	nop
     3ba:	df 91       	pop	r29
     3bc:	cf 91       	pop	r28
     3be:	08 95       	ret

000003c0 <Display_ModeEntry>:
     3c0:	cf 93       	push	r28
     3c2:	df 93       	push	r29
     3c4:	1f 92       	push	r1
     3c6:	cd b7       	in	r28, 0x3d	; 61
     3c8:	de b7       	in	r29, 0x3e	; 62
     3ca:	89 83       	std	Y+1, r24	; 0x01
     3cc:	be de       	rcall	.-644    	; 0x14a <Display_HardwareInit>
     3ce:	52 df       	rcall	.-348    	; 0x274 <Display_RS_Low>
     3d0:	89 81       	ldd	r24, Y+1	; 0x01
     3d2:	85 d0       	rcall	.+266    	; 0x4de <Display_Transfer4BitData>
     3d4:	3e df       	rcall	.-388    	; 0x252 <Display_RS_High>
     3d6:	62 e3       	ldi	r22, 0x32	; 50
     3d8:	70 e0       	ldi	r23, 0x00	; 0
     3da:	80 e0       	ldi	r24, 0x00	; 0
     3dc:	90 e0       	ldi	r25, 0x00	; 0
     3de:	c0 de       	rcall	.-640    	; 0x160 <Display_delay>
     3e0:	00 00       	nop
     3e2:	0f 90       	pop	r0
     3e4:	df 91       	pop	r29
     3e6:	cf 91       	pop	r28
     3e8:	08 95       	ret

000003ea <Display_Control>:
     3ea:	cf 93       	push	r28
     3ec:	df 93       	push	r29
     3ee:	1f 92       	push	r1
     3f0:	cd b7       	in	r28, 0x3d	; 61
     3f2:	de b7       	in	r29, 0x3e	; 62
     3f4:	89 83       	std	Y+1, r24	; 0x01
     3f6:	a9 de       	rcall	.-686    	; 0x14a <Display_HardwareInit>
     3f8:	3d df       	rcall	.-390    	; 0x274 <Display_RS_Low>
     3fa:	89 81       	ldd	r24, Y+1	; 0x01
     3fc:	70 d0       	rcall	.+224    	; 0x4de <Display_Transfer4BitData>
     3fe:	29 df       	rcall	.-430    	; 0x252 <Display_RS_High>
     400:	62 e3       	ldi	r22, 0x32	; 50
     402:	70 e0       	ldi	r23, 0x00	; 0
     404:	80 e0       	ldi	r24, 0x00	; 0
     406:	90 e0       	ldi	r25, 0x00	; 0
     408:	ab de       	rcall	.-682    	; 0x160 <Display_delay>
     40a:	00 00       	nop
     40c:	0f 90       	pop	r0
     40e:	df 91       	pop	r29
     410:	cf 91       	pop	r28
     412:	08 95       	ret

00000414 <Display_SetMPUInterface>:
//							Display_delay
//Übergebene Parameter	: Options
//Zurückgegebene Werte	: keine
//----------------------------------------------------------------------------------------------
void Display_SetMPUInterface(unsigned char Options)
{
     414:	cf 93       	push	r28
     416:	df 93       	push	r29
     418:	00 d0       	rcall	.+0      	; 0x41a <Display_SetMPUInterface+0x6>
     41a:	1f 92       	push	r1
     41c:	cd b7       	in	r28, 0x3d	; 61
     41e:	de b7       	in	r29, 0x3e	; 62
     420:	8b 83       	std	Y+3, r24	; 0x03
	unsigned char dummy = 0x80, i;	//dummy dient zur Maskierung der einzelnen Bits
     422:	80 e8       	ldi	r24, 0x80	; 128
     424:	89 83       	std	Y+1, r24	; 0x01

	Display_HardwareInit();	//der µC wird für die Ansteuerung vom Display initialisiert
     426:	91 de       	rcall	.-734    	; 0x14a <Display_HardwareInit>
	Display_RS_Low();		//RS-Leitung auf low, Befehls-Register vom Display wird angewählt
     428:	25 df       	rcall	.-438    	; 0x274 <Display_RS_Low>
	Display_EN_High();		//EN-Leitung (Read/Write Freigabe) wird auf high gesetzt
     42a:	46 df       	rcall	.-372    	; 0x2b8 <Display_EN_High>
							//die einzelne Datenbits werden beschrieben
	for(i = 0; i < 4; i++)	//die ersten 4 Datenbits werden beschrieben
     42c:	1a 82       	std	Y+2, r1	; 0x02
     42e:	1c c0       	rjmp	.+56     	; 0x468 <Display_SetMPUInterface+0x54>
	{
		if(Options & dummy)
     430:	9b 81       	ldd	r25, Y+3	; 0x03
     432:	89 81       	ldd	r24, Y+1	; 0x01
     434:	89 23       	and	r24, r25
     436:	88 23       	and	r24, r24
     438:	49 f0       	breq	.+18     	; 0x44c <Display_SetMPUInterface+0x38>
		{
			Display_DATA_BitHigh(ucDataBit[i]);	//wenn das Bit im Options entsprechend dem dummy-Bit
     43a:	8a 81       	ldd	r24, Y+2	; 0x02
     43c:	88 2f       	mov	r24, r24
     43e:	90 e0       	ldi	r25, 0x00	; 0
     440:	8e 5e       	subi	r24, 0xEE	; 238
     442:	9e 4f       	sbci	r25, 0xFE	; 254
     444:	fc 01       	movw	r30, r24
     446:	80 81       	ld	r24, Z
     448:	6a df       	rcall	.-300    	; 0x31e <Display_DATA_BitHigh>
     44a:	08 c0       	rjmp	.+16     	; 0x45c <Display_SetMPUInterface+0x48>
		}					//1 ist, so wird das entsprechende Datenbit auf high gesetzt
		else
		{
			Display_DATA_BitLow(ucDataBit[i]);
     44c:	8a 81       	ldd	r24, Y+2	; 0x02
     44e:	88 2f       	mov	r24, r24
     450:	90 e0       	ldi	r25, 0x00	; 0
     452:	8e 5e       	subi	r24, 0xEE	; 238
     454:	9e 4f       	sbci	r25, 0xFE	; 254
     456:	fc 01       	movw	r30, r24
     458:	80 81       	ld	r24, Z
     45a:	80 df       	rcall	.-256    	; 0x35c <Display_DATA_BitLow>
		}

		dummy = dummy >> 1;
     45c:	89 81       	ldd	r24, Y+1	; 0x01
     45e:	86 95       	lsr	r24
     460:	89 83       	std	Y+1, r24	; 0x01

	Display_HardwareInit();	//der µC wird für die Ansteuerung vom Display initialisiert
	Display_RS_Low();		//RS-Leitung auf low, Befehls-Register vom Display wird angewählt
	Display_EN_High();		//EN-Leitung (Read/Write Freigabe) wird auf high gesetzt
							//die einzelne Datenbits werden beschrieben
	for(i = 0; i < 4; i++)	//die ersten 4 Datenbits werden beschrieben
     462:	8a 81       	ldd	r24, Y+2	; 0x02
     464:	8f 5f       	subi	r24, 0xFF	; 255
     466:	8a 83       	std	Y+2, r24	; 0x02
     468:	8a 81       	ldd	r24, Y+2	; 0x02
     46a:	84 30       	cpi	r24, 0x04	; 4
     46c:	08 f3       	brcs	.-62     	; 0x430 <Display_SetMPUInterface+0x1c>
		}

		dummy = dummy >> 1;
	}			

	Display_EN_Low();	//der Zustand auf den 4 Datenbit-Leitungen wird gespeichert
     46e:	35 df       	rcall	.-406    	; 0x2da <Display_EN_Low>
	Display_EN_High();	//EN-Leitung (Read/Write Freigabe) wird wieder auf high gesetzt	
     470:	23 df       	rcall	.-442    	; 0x2b8 <Display_EN_High>

	Display_Transfer4BitData(Options);	//Funktionscode wird übertragen
     472:	8b 81       	ldd	r24, Y+3	; 0x03
     474:	34 d0       	rcall	.+104    	; 0x4de <Display_Transfer4BitData>
	Display_RS_High();		//RS-Leitung geht auf high
     476:	ed de       	rcall	.-550    	; 0x252 <Display_RS_High>
	Display_delay(DISPLAY_SET_MPU_INTERFACE_DELAY);	//warten auf das Ausführen des Befehls
     478:	62 e3       	ldi	r22, 0x32	; 50
     47a:	70 e0       	ldi	r23, 0x00	; 0
     47c:	80 e0       	ldi	r24, 0x00	; 0
     47e:	90 e0       	ldi	r25, 0x00	; 0
     480:	6f de       	rcall	.-802    	; 0x160 <Display_delay>
}
     482:	00 00       	nop
     484:	0f 90       	pop	r0
     486:	0f 90       	pop	r0
     488:	0f 90       	pop	r0
     48a:	df 91       	pop	r29
     48c:	cf 91       	pop	r28
     48e:	08 95       	ret

00000490 <Display_SetCursor>:
//							Display_delay
//Übergebene Parameter	: row ist die Zeile (0 bis 3), column die Spalte (0 bis 15)
//Zurückgegebene Werte	: keine
//----------------------------------------------------------------------------------------------
void Display_SetCursor(unsigned char row, unsigned char column)
{
     490:	cf 93       	push	r28
     492:	df 93       	push	r29
     494:	00 d0       	rcall	.+0      	; 0x496 <Display_SetCursor+0x6>
     496:	1f 92       	push	r1
     498:	cd b7       	in	r28, 0x3d	; 61
     49a:	de b7       	in	r29, 0x3e	; 62
     49c:	8a 83       	std	Y+2, r24	; 0x02
     49e:	6b 83       	std	Y+3, r22	; 0x03
	unsigned char adresse = DISPLAY_FUNKTION_SET_DDRAM_ADRESSE;	
     4a0:	80 e8       	ldi	r24, 0x80	; 128
     4a2:	89 83       	std	Y+1, r24	; 0x01
	//adresse wird mit dem Instruction Code des Befehls initialisiert
	adresse += ucRAM_OffsetAdresse[row] + column;
     4a4:	8a 81       	ldd	r24, Y+2	; 0x02
     4a6:	88 2f       	mov	r24, r24
     4a8:	90 e0       	ldi	r25, 0x00	; 0
     4aa:	86 5e       	subi	r24, 0xE6	; 230
     4ac:	9e 4f       	sbci	r25, 0xFE	; 254
     4ae:	fc 01       	movw	r30, r24
     4b0:	90 81       	ld	r25, Z
     4b2:	8b 81       	ldd	r24, Y+3	; 0x03
     4b4:	89 0f       	add	r24, r25
     4b6:	99 81       	ldd	r25, Y+1	; 0x01
     4b8:	89 0f       	add	r24, r25
     4ba:	89 83       	std	Y+1, r24	; 0x01

	Display_HardwareInit();	//der µC wird für die Ansteuerung vom Display initialisiert
     4bc:	46 de       	rcall	.-884    	; 0x14a <Display_HardwareInit>
	Display_RS_Low();		//RS-Leitung auf low, Befehls-Register vom Display wird angewählt
     4be:	da de       	rcall	.-588    	; 0x274 <Display_RS_Low>

	Display_Transfer4BitData(adresse);	//Funktionscode wird übertragen
     4c0:	89 81       	ldd	r24, Y+1	; 0x01
     4c2:	0d d0       	rcall	.+26     	; 0x4de <Display_Transfer4BitData>
	Display_RS_High();		//RS-Leitung geht auf high
     4c4:	c6 de       	rcall	.-628    	; 0x252 <Display_RS_High>
	Display_delay(DISPLAY_SET_RAM_ADRESSE_DELAY);	//warten auf das Ausführen des Befehls
     4c6:	62 e3       	ldi	r22, 0x32	; 50
     4c8:	70 e0       	ldi	r23, 0x00	; 0
     4ca:	80 e0       	ldi	r24, 0x00	; 0
     4cc:	90 e0       	ldi	r25, 0x00	; 0
     4ce:	48 de       	rcall	.-880    	; 0x160 <Display_delay>
}
     4d0:	00 00       	nop
     4d2:	0f 90       	pop	r0
     4d4:	0f 90       	pop	r0
     4d6:	0f 90       	pop	r0
     4d8:	df 91       	pop	r29
     4da:	cf 91       	pop	r28
     4dc:	08 95       	ret

000004de <Display_Transfer4BitData>:
//							Display_EN_Low
//Übergebene Parameter	: _8BitData
//Zurückgegebene Werte	: keine
//----------------------------------------------------------------------------------------------
void Display_Transfer4BitData(unsigned char _8BitData)
{
     4de:	cf 93       	push	r28
     4e0:	df 93       	push	r29
     4e2:	00 d0       	rcall	.+0      	; 0x4e4 <Display_Transfer4BitData+0x6>
     4e4:	1f 92       	push	r1
     4e6:	cd b7       	in	r28, 0x3d	; 61
     4e8:	de b7       	in	r29, 0x3e	; 62
     4ea:	8b 83       	std	Y+3, r24	; 0x03
	unsigned char dummy = 0x80, i;
     4ec:	80 e8       	ldi	r24, 0x80	; 128
     4ee:	89 83       	std	Y+1, r24	; 0x01

	Display_EN_High();	////EN-Leitung (Read/Write Freigabe) wird auf high gesetzt
     4f0:	e3 de       	rcall	.-570    	; 0x2b8 <Display_EN_High>

	for(i = 0; i < 8; i++)	//die ersten 4 Datenbits werden beschrieben
     4f2:	1a 82       	std	Y+2, r1	; 0x02
     4f4:	21 c0       	rjmp	.+66     	; 0x538 <__stack+0x39>
	{
		if(_8BitData & dummy)
     4f6:	9b 81       	ldd	r25, Y+3	; 0x03
     4f8:	89 81       	ldd	r24, Y+1	; 0x01
     4fa:	89 23       	and	r24, r25
     4fc:	88 23       	and	r24, r24
     4fe:	49 f0       	breq	.+18     	; 0x512 <__stack+0x13>
		{
			Display_DATA_BitHigh(ucDataBit[i]);	//wenn das im Options entsprechend dem dummy Bit
     500:	8a 81       	ldd	r24, Y+2	; 0x02
     502:	88 2f       	mov	r24, r24
     504:	90 e0       	ldi	r25, 0x00	; 0
     506:	8e 5e       	subi	r24, 0xEE	; 238
     508:	9e 4f       	sbci	r25, 0xFE	; 254
     50a:	fc 01       	movw	r30, r24
     50c:	80 81       	ld	r24, Z
     50e:	07 df       	rcall	.-498    	; 0x31e <Display_DATA_BitHigh>
     510:	08 c0       	rjmp	.+16     	; 0x522 <__stack+0x23>
		}					//1 ist, so wird das entsprechende Datenbit auf high gesetzt
		else				//ansonsten wird es auf low gesetzt
		{
			Display_DATA_BitLow(ucDataBit[i]);
     512:	8a 81       	ldd	r24, Y+2	; 0x02
     514:	88 2f       	mov	r24, r24
     516:	90 e0       	ldi	r25, 0x00	; 0
     518:	8e 5e       	subi	r24, 0xEE	; 238
     51a:	9e 4f       	sbci	r25, 0xFE	; 254
     51c:	fc 01       	movw	r30, r24
     51e:	80 81       	ld	r24, Z
     520:	1d df       	rcall	.-454    	; 0x35c <Display_DATA_BitLow>
		}

		dummy = dummy >> 1;
     522:	89 81       	ldd	r24, Y+1	; 0x01
     524:	86 95       	lsr	r24
     526:	89 83       	std	Y+1, r24	; 0x01
		if(i == 3)		//wenn die ersten 4 Bits beschrieben sind,
     528:	8a 81       	ldd	r24, Y+2	; 0x02
     52a:	83 30       	cpi	r24, 0x03	; 3
     52c:	11 f4       	brne	.+4      	; 0x532 <__stack+0x33>
		{
			Display_EN_Low();	//so werden sie vom Displaycontroller gespeichert
     52e:	d5 de       	rcall	.-598    	; 0x2da <Display_EN_Low>
			Display_EN_High();	//EN-Leitung (Read/Write Freigabe) wird wieder auf high gesetzt			
     530:	c3 de       	rcall	.-634    	; 0x2b8 <Display_EN_High>
{
	unsigned char dummy = 0x80, i;

	Display_EN_High();	////EN-Leitung (Read/Write Freigabe) wird auf high gesetzt

	for(i = 0; i < 8; i++)	//die ersten 4 Datenbits werden beschrieben
     532:	8a 81       	ldd	r24, Y+2	; 0x02
     534:	8f 5f       	subi	r24, 0xFF	; 255
     536:	8a 83       	std	Y+2, r24	; 0x02
     538:	8a 81       	ldd	r24, Y+2	; 0x02
     53a:	88 30       	cpi	r24, 0x08	; 8
     53c:	e0 f2       	brcs	.-72     	; 0x4f6 <Display_Transfer4BitData+0x18>
			Display_EN_Low();	//so werden sie vom Displaycontroller gespeichert
			Display_EN_High();	//EN-Leitung (Read/Write Freigabe) wird wieder auf high gesetzt			
		}
	}

	Display_EN_Low();	//das low-nibble des Byte wird gespeichert
     53e:	cd de       	rcall	.-614    	; 0x2da <Display_EN_Low>
}
     540:	00 00       	nop
     542:	0f 90       	pop	r0
     544:	0f 90       	pop	r0
     546:	0f 90       	pop	r0
     548:	df 91       	pop	r29
     54a:	cf 91       	pop	r28
     54c:	08 95       	ret

0000054e <Display_Init>:
//							Display_ModeEntry
//							Display_Control
//Übergebene Parameter	: keine
//----------------------------------------------------------------------------------------------
void Display_Init(void)
{		
     54e:	cf 93       	push	r28
     550:	df 93       	push	r29
     552:	cd b7       	in	r28, 0x3d	; 61
     554:	de b7       	in	r29, 0x3e	; 62

	Display_Aus();										//Display-Modul wird ausgeschaltet
     556:	41 de       	rcall	.-894    	; 0x1da <Display_Aus>
	Display_delay(50000);										//0,05 s Wartezeit für Display-Reset
     558:	60 e5       	ldi	r22, 0x50	; 80
     55a:	73 ec       	ldi	r23, 0xC3	; 195
     55c:	80 e0       	ldi	r24, 0x00	; 0
     55e:	90 e0       	ldi	r25, 0x00	; 0
     560:	ff dd       	rcall	.-1026   	; 0x160 <Display_delay>
	Display_An();										//Display-Modul wird eingeschaltet
     562:	55 de       	rcall	.-854    	; 0x20e <Display_An>

	//Initialisierung beginnt													
	Display_delay(30000);										//Verzögerung > 30 ms
     564:	60 e3       	ldi	r22, 0x30	; 48
     566:	75 e7       	ldi	r23, 0x75	; 117
     568:	80 e0       	ldi	r24, 0x00	; 0
     56a:	90 e0       	ldi	r25, 0x00	; 0
     56c:	f9 dd       	rcall	.-1038   	; 0x160 <Display_delay>
	Display_SetMPUInterface(DISPLAY_MPU_4BIT_2_LINES_5x7_DOTS);
     56e:	88 e2       	ldi	r24, 0x28	; 40
     570:	51 df       	rcall	.-350    	; 0x414 <Display_SetMPUInterface>
	//die Kommunikation findet auf 4 Bit statt, 2zeiliges Display, 5x7 Pixel große Buchstaben
	Display_Clear();	//der gesamte Inhalt des Displays wird gelöscht
     572:	14 df       	rcall	.-472    	; 0x39c <Display_Clear>
	Display_ModeEntry(DISPLAY_MODE_INCR_SHIFT_OFF);	//der Cursor wird um eine stelle inkrementiert,
     574:	86 e0       	ldi	r24, 0x06	; 6
     576:	24 df       	rcall	.-440    	; 0x3c0 <Display_ModeEntry>
													//die Anzeige wird nicht verschoben
	Display_Control(DISPLAY_ON_CURSOR_ON_BLINK_OFF);//Anzeige und Cursor sind eingeblendet,
     578:	8e e0       	ldi	r24, 0x0E	; 14
     57a:	37 df       	rcall	.-402    	; 0x3ea <Display_Control>
													//Cursor blinkt nicht
}
     57c:	00 00       	nop
     57e:	df 91       	pop	r29
     580:	cf 91       	pop	r28
     582:	08 95       	ret

00000584 <Display_Write>:
//						  	Display_delay
//Übergebene Parameter	: ASCII_of_car - ASCII-Code des Zeichens das angezeigt werden soll
//Zurückgegebene Werte	: keine
//----------------------------------------------------------------------------------------------
void Display_Write(unsigned char ASCII_of_char)
{
     584:	cf 93       	push	r28
     586:	df 93       	push	r29
     588:	1f 92       	push	r1
     58a:	cd b7       	in	r28, 0x3d	; 61
     58c:	de b7       	in	r29, 0x3e	; 62
     58e:	89 83       	std	Y+1, r24	; 0x01
	Display_HardwareInit();	//der µC wird für die Ansteuerung vom Display initialisiert
     590:	dc dd       	rcall	.-1096   	; 0x14a <Display_HardwareInit>
	Display_RS_High();	//RS-Leitung auf high, Data-Register vom Display wird angewählt		
     592:	5f de       	rcall	.-834    	; 0x252 <Display_RS_High>

	Display_Transfer4BitData(ASCII_of_char);	//ASCII-code wird übertragen
     594:	89 81       	ldd	r24, Y+1	; 0x01
     596:	a3 df       	rcall	.-186    	; 0x4de <Display_Transfer4BitData>
	Display_RS_Low();	//RS-Leitung wird auf low gesetzt
     598:	6d de       	rcall	.-806    	; 0x274 <Display_RS_Low>
	Display_delay(DISPLAY_SET_RAM_ADRESSE_DELAY);	//warten auf das Ausführen des Befehls
     59a:	62 e3       	ldi	r22, 0x32	; 50
     59c:	70 e0       	ldi	r23, 0x00	; 0
     59e:	80 e0       	ldi	r24, 0x00	; 0
     5a0:	90 e0       	ldi	r25, 0x00	; 0
     5a2:	de dd       	rcall	.-1092   	; 0x160 <Display_delay>
}
     5a4:	00 00       	nop
     5a6:	0f 90       	pop	r0
     5a8:	df 91       	pop	r29
     5aa:	cf 91       	pop	r28
     5ac:	08 95       	ret

000005ae <Display_Print>:
//Übergebene Parameter	: 	text2print - ein Zeiger auf die Adresse vom Textarray
//							length - Zeichenzahl
//Zurückgegebene Werte	: keine
//----------------------------------------------------------------------------------------------
void Display_Print(unsigned char* text2print, unsigned char length)
{
     5ae:	cf 93       	push	r28
     5b0:	df 93       	push	r29
     5b2:	00 d0       	rcall	.+0      	; 0x5b4 <Display_Print+0x6>
     5b4:	00 d0       	rcall	.+0      	; 0x5b6 <Display_Print+0x8>
     5b6:	cd b7       	in	r28, 0x3d	; 61
     5b8:	de b7       	in	r29, 0x3e	; 62
     5ba:	9b 83       	std	Y+3, r25	; 0x03
     5bc:	8a 83       	std	Y+2, r24	; 0x02
     5be:	6c 83       	std	Y+4, r22	; 0x04
	unsigned char i = 0;
     5c0:	19 82       	std	Y+1, r1	; 0x01

	Display_HardwareInit();	//der µC wird für die Ansteuerung vom Display initialisiert
     5c2:	c3 dd       	rcall	.-1146   	; 0x14a <Display_HardwareInit>
	Display_RS_High();	//RS-Leitung auf high, Data-Register vom Display wird angewählt
     5c4:	46 de       	rcall	.-884    	; 0x252 <Display_RS_High>
	for(i = 0; i < length; i++)
     5c6:	19 82       	std	Y+1, r1	; 0x01
     5c8:	0d c0       	rjmp	.+26     	; 0x5e4 <Display_Print+0x36>
	{
		Display_Write(text2print[i]);	//das i-te Zeichen wird angezeigt
     5ca:	89 81       	ldd	r24, Y+1	; 0x01
     5cc:	88 2f       	mov	r24, r24
     5ce:	90 e0       	ldi	r25, 0x00	; 0
     5d0:	2a 81       	ldd	r18, Y+2	; 0x02
     5d2:	3b 81       	ldd	r19, Y+3	; 0x03
     5d4:	82 0f       	add	r24, r18
     5d6:	93 1f       	adc	r25, r19
     5d8:	fc 01       	movw	r30, r24
     5da:	80 81       	ld	r24, Z
     5dc:	d3 df       	rcall	.-90     	; 0x584 <Display_Write>
{
	unsigned char i = 0;

	Display_HardwareInit();	//der µC wird für die Ansteuerung vom Display initialisiert
	Display_RS_High();	//RS-Leitung auf high, Data-Register vom Display wird angewählt
	for(i = 0; i < length; i++)
     5de:	89 81       	ldd	r24, Y+1	; 0x01
     5e0:	8f 5f       	subi	r24, 0xFF	; 255
     5e2:	89 83       	std	Y+1, r24	; 0x01
     5e4:	99 81       	ldd	r25, Y+1	; 0x01
     5e6:	8c 81       	ldd	r24, Y+4	; 0x04
     5e8:	98 17       	cp	r25, r24
     5ea:	78 f3       	brcs	.-34     	; 0x5ca <Display_Print+0x1c>
	{
		Display_Write(text2print[i]);	//das i-te Zeichen wird angezeigt
	}
	Display_RS_Low();	//RS-Leitung wird auf low gesetzt
     5ec:	43 de       	rcall	.-890    	; 0x274 <Display_RS_Low>
}
     5ee:	00 00       	nop
     5f0:	0f 90       	pop	r0
     5f2:	0f 90       	pop	r0
     5f4:	0f 90       	pop	r0
     5f6:	0f 90       	pop	r0
     5f8:	df 91       	pop	r29
     5fa:	cf 91       	pop	r28
     5fc:	08 95       	ret

000005fe <GerneralInit>:

//Variables

//Definition of funcitons

void GerneralInit(void){
     5fe:	cf 93       	push	r28
     600:	df 93       	push	r29
     602:	cd b7       	in	r28, 0x3d	; 61
     604:	de b7       	in	r29, 0x3e	; 62
     606:	27 97       	sbiw	r28, 0x07	; 7
     608:	0f b6       	in	r0, 0x3f	; 63
     60a:	f8 94       	cli
     60c:	de bf       	out	0x3e, r29	; 62
     60e:	0f be       	out	0x3f, r0	; 63
     610:	cd bf       	out	0x3d, r28	; 61
	//Date :			27.10.2022
	//Author:			Moritz
	//Source:			
	//Status:			not testet
	//--------------------------------
	Display_Init();
     612:	9d df       	rcall	.-198    	; 0x54e <Display_Init>
	LED_Init();
     614:	96 d0       	rcall	.+300    	; 0x742 <LED_Init>
	
	WS2812_Init();
     616:	10 d7       	rcall	.+3616   	; 0x1438 <WS2812_Init>
	keys_Init();
     618:	31 d0       	rcall	.+98     	; 0x67c <keys_Init>
	Timer1_Init();
     61a:	71 d3       	rcall	.+1762   	; 0xcfe <Timer1_Init>
	Servo_Init();
     61c:	40 d2       	rcall	.+1152   	; 0xa9e <Servo_Init>
	
	//Calculate TWI register clock=========================================================
	unsigned int F_CPU = 20/*[MHz]*/;			//Clock of uC_Board in Hz
     61e:	84 e1       	ldi	r24, 0x14	; 20
     620:	90 e0       	ldi	r25, 0x00	; 0
     622:	9a 83       	std	Y+2, r25	; 0x02
     624:	89 83       	std	Y+1, r24	; 0x01
	unsigned int TWI_SCL_FREQ = 400/*[kHz]*/;	//needed TWI frequency for fast speed TWI
     626:	80 e9       	ldi	r24, 0x90	; 144
     628:	91 e0       	ldi	r25, 0x01	; 1
     62a:	9c 83       	std	Y+4, r25	; 0x04
     62c:	8b 83       	std	Y+3, r24	; 0x03
	unsigned int itwi_clock = (((F_CPU*1000 / TWI_SCL_FREQ)- 16) / 2 + 1);
     62e:	29 81       	ldd	r18, Y+1	; 0x01
     630:	3a 81       	ldd	r19, Y+2	; 0x02
     632:	88 ee       	ldi	r24, 0xE8	; 232
     634:	93 e0       	ldi	r25, 0x03	; 3
     636:	28 9f       	mul	r18, r24
     638:	a0 01       	movw	r20, r0
     63a:	29 9f       	mul	r18, r25
     63c:	50 0d       	add	r21, r0
     63e:	38 9f       	mul	r19, r24
     640:	50 0d       	add	r21, r0
     642:	11 24       	eor	r1, r1
     644:	2b 81       	ldd	r18, Y+3	; 0x03
     646:	3c 81       	ldd	r19, Y+4	; 0x04
     648:	ca 01       	movw	r24, r20
     64a:	b9 01       	movw	r22, r18
     64c:	ad d7       	rcall	.+3930   	; 0x15a8 <__udivmodhi4>
     64e:	cb 01       	movw	r24, r22
     650:	40 97       	sbiw	r24, 0x10	; 16
     652:	96 95       	lsr	r25
     654:	87 95       	ror	r24
     656:	01 96       	adiw	r24, 0x01	; 1
     658:	9e 83       	std	Y+6, r25	; 0x06
     65a:	8d 83       	std	Y+5, r24	; 0x05
	unsigned char uctwi_clock = (unsigned char)itwi_clock;
     65c:	8d 81       	ldd	r24, Y+5	; 0x05
     65e:	8f 83       	std	Y+7, r24	; 0x07
	//=====================================================================================	
	TWI_Master_Init(uctwi_clock);
     660:	8f 81       	ldd	r24, Y+7	; 0x07
     662:	88 2f       	mov	r24, r24
     664:	90 e0       	ldi	r25, 0x00	; 0
     666:	36 d6       	rcall	.+3180   	; 0x12d4 <TWI_Master_Init>

	//CAN_Filter_Init();
	//InitTimer2CTC();
	
}
     668:	00 00       	nop
     66a:	27 96       	adiw	r28, 0x07	; 7
     66c:	0f b6       	in	r0, 0x3f	; 63
     66e:	f8 94       	cli
     670:	de bf       	out	0x3e, r29	; 62
     672:	0f be       	out	0x3f, r0	; 63
     674:	cd bf       	out	0x3d, r28	; 61
     676:	df 91       	pop	r29
     678:	cf 91       	pop	r28
     67a:	08 95       	ret

0000067c <keys_Init>:
     67c:	cf 93       	push	r28
     67e:	df 93       	push	r29
     680:	cd b7       	in	r28, 0x3d	; 61
     682:	de b7       	in	r29, 0x3e	; 62
     684:	8a e2       	ldi	r24, 0x2A	; 42
     686:	90 e0       	ldi	r25, 0x00	; 0
     688:	2a e2       	ldi	r18, 0x2A	; 42
     68a:	30 e0       	ldi	r19, 0x00	; 0
     68c:	f9 01       	movw	r30, r18
     68e:	20 81       	ld	r18, Z
     690:	27 7c       	andi	r18, 0xC7	; 199
     692:	fc 01       	movw	r30, r24
     694:	20 83       	st	Z, r18
     696:	00 00       	nop
     698:	df 91       	pop	r29
     69a:	cf 91       	pop	r28
     69c:	08 95       	ret

0000069e <keys_get_state>:
     69e:	cf 93       	push	r28
     6a0:	df 93       	push	r29
     6a2:	cd b7       	in	r28, 0x3d	; 61
     6a4:	de b7       	in	r29, 0x3e	; 62
     6a6:	80 91 1e 01 	lds	r24, 0x011E	; 0x80011e <ucS1_new>
     6aa:	80 93 7c 01 	sts	0x017C, r24	; 0x80017c <ucS1_old>
     6ae:	80 91 1f 01 	lds	r24, 0x011F	; 0x80011f <ucS2_new>
     6b2:	80 93 7d 01 	sts	0x017D, r24	; 0x80017d <ucS2_old>
     6b6:	80 91 20 01 	lds	r24, 0x0120	; 0x800120 <ucS3_new>
     6ba:	80 93 7a 01 	sts	0x017A, r24	; 0x80017a <ucS3_old>
     6be:	80 91 21 01 	lds	r24, 0x0121	; 0x800121 <ucS4_new>
     6c2:	80 93 7b 01 	sts	0x017B, r24	; 0x80017b <ucS4_old>
     6c6:	89 e2       	ldi	r24, 0x29	; 41
     6c8:	90 e0       	ldi	r25, 0x00	; 0
     6ca:	fc 01       	movw	r30, r24
     6cc:	80 81       	ld	r24, Z
     6ce:	80 72       	andi	r24, 0x20	; 32
     6d0:	80 93 1e 01 	sts	0x011E, r24	; 0x80011e <ucS1_new>
     6d4:	89 e2       	ldi	r24, 0x29	; 41
     6d6:	90 e0       	ldi	r25, 0x00	; 0
     6d8:	fc 01       	movw	r30, r24
     6da:	80 81       	ld	r24, Z
     6dc:	80 71       	andi	r24, 0x10	; 16
     6de:	80 93 1f 01 	sts	0x011F, r24	; 0x80011f <ucS2_new>
     6e2:	89 e2       	ldi	r24, 0x29	; 41
     6e4:	90 e0       	ldi	r25, 0x00	; 0
     6e6:	fc 01       	movw	r30, r24
     6e8:	80 81       	ld	r24, Z
     6ea:	88 70       	andi	r24, 0x08	; 8
     6ec:	80 93 20 01 	sts	0x0120, r24	; 0x800120 <ucS3_new>
     6f0:	89 e2       	ldi	r24, 0x29	; 41
     6f2:	90 e0       	ldi	r25, 0x00	; 0
     6f4:	fc 01       	movw	r30, r24
     6f6:	80 81       	ld	r24, Z
     6f8:	84 70       	andi	r24, 0x04	; 4
     6fa:	80 93 21 01 	sts	0x0121, r24	; 0x800121 <ucS4_new>
     6fe:	80 91 1e 01 	lds	r24, 0x011E	; 0x80011e <ucS1_new>
     702:	88 23       	and	r24, r24
     704:	31 f4       	brne	.+12     	; 0x712 <keys_get_state+0x74>
     706:	80 91 7c 01 	lds	r24, 0x017C	; 0x80017c <ucS1_old>
     70a:	88 23       	and	r24, r24
     70c:	11 f0       	breq	.+4      	; 0x712 <keys_get_state+0x74>
     70e:	81 e0       	ldi	r24, 0x01	; 1
     710:	15 c0       	rjmp	.+42     	; 0x73c <keys_get_state+0x9e>
     712:	80 91 1f 01 	lds	r24, 0x011F	; 0x80011f <ucS2_new>
     716:	88 23       	and	r24, r24
     718:	31 f4       	brne	.+12     	; 0x726 <keys_get_state+0x88>
     71a:	80 91 7d 01 	lds	r24, 0x017D	; 0x80017d <ucS2_old>
     71e:	88 23       	and	r24, r24
     720:	11 f0       	breq	.+4      	; 0x726 <keys_get_state+0x88>
     722:	82 e0       	ldi	r24, 0x02	; 2
     724:	0b c0       	rjmp	.+22     	; 0x73c <keys_get_state+0x9e>
     726:	80 91 20 01 	lds	r24, 0x0120	; 0x800120 <ucS3_new>
     72a:	88 23       	and	r24, r24
     72c:	31 f4       	brne	.+12     	; 0x73a <keys_get_state+0x9c>
     72e:	80 91 7a 01 	lds	r24, 0x017A	; 0x80017a <ucS3_old>
     732:	88 23       	and	r24, r24
     734:	11 f0       	breq	.+4      	; 0x73a <keys_get_state+0x9c>
     736:	83 e0       	ldi	r24, 0x03	; 3
     738:	01 c0       	rjmp	.+2      	; 0x73c <keys_get_state+0x9e>
     73a:	80 e0       	ldi	r24, 0x00	; 0
     73c:	df 91       	pop	r29
     73e:	cf 91       	pop	r28
     740:	08 95       	ret

00000742 <LED_Init>:
#include "LED.h"

//Dekalaration der globalen Variablen im Modul LED

//Defintionen der Fnen
void LED_Init(void){
     742:	cf 93       	push	r28
     744:	df 93       	push	r29
     746:	cd b7       	in	r28, 0x3d	; 61
     748:	de b7       	in	r29, 0x3e	; 62
	//Datum:			220330
	//Autor:			mh
	//Status:			ok
	//--------------------------------------------
	//DDRD |= 1 << PD6;
	DDRB |= 1 << PB2;
     74a:	84 e2       	ldi	r24, 0x24	; 36
     74c:	90 e0       	ldi	r25, 0x00	; 0
     74e:	24 e2       	ldi	r18, 0x24	; 36
     750:	30 e0       	ldi	r19, 0x00	; 0
     752:	f9 01       	movw	r30, r18
     754:	20 81       	ld	r18, Z
     756:	24 60       	ori	r18, 0x04	; 4
     758:	fc 01       	movw	r30, r24
     75a:	20 83       	st	Z, r18
}
     75c:	00 00       	nop
     75e:	df 91       	pop	r29
     760:	cf 91       	pop	r28
     762:	08 95       	ret

00000764 <main>:
//Variables


//Main function
int main(void)
{
     764:	cf 93       	push	r28
     766:	df 93       	push	r29
     768:	00 d0       	rcall	.+0      	; 0x76a <main+0x6>
     76a:	00 d0       	rcall	.+0      	; 0x76c <main+0x8>
     76c:	00 d0       	rcall	.+0      	; 0x76e <main+0xa>
     76e:	cd b7       	in	r28, 0x3d	; 61
     770:	de b7       	in	r29, 0x3e	; 62
	GerneralInit();
     772:	45 df       	rcall	.-374    	; 0x5fe <GerneralInit>
	unsigned char ucCANStatus = CAN_NOT_RECEIVED;
     774:	85 e6       	ldi	r24, 0x65	; 101
     776:	8d 83       	std	Y+5, r24	; 0x05
	int iTargetTemp = 230;	//Initial set of target
     778:	86 ee       	ldi	r24, 0xE6	; 230
     77a:	90 e0       	ldi	r25, 0x00	; 0
     77c:	9a 83       	std	Y+2, r25	; 0x02
     77e:	89 83       	std	Y+1, r24	; 0x01
							//2 avoid comma value is multiplied with 10
	int iActualTemp;
	//Can
	MCP2515_Init(MCP2515_1, BAUDRATE_250_KBPS);
     780:	25 e0       	ldi	r18, 0x05	; 5
     782:	40 91 27 01 	lds	r20, 0x0127	; 0x800127 <MCP2515_1>
     786:	50 91 28 01 	lds	r21, 0x0128	; 0x800128 <MCP2515_1+0x1>
     78a:	60 91 29 01 	lds	r22, 0x0129	; 0x800129 <MCP2515_1+0x2>
     78e:	70 91 2a 01 	lds	r23, 0x012A	; 0x80012a <MCP2515_1+0x3>
     792:	80 91 2b 01 	lds	r24, 0x012B	; 0x80012b <MCP2515_1+0x4>
     796:	90 91 2c 01 	lds	r25, 0x012C	; 0x80012c <MCP2515_1+0x5>
     79a:	33 d0       	rcall	.+102    	; 0x802 <MCP2515_Init>
	//MCP2515_Set_Filter_Mask(MCP2515_1, &sFilter);
	
	
	while (1)
	{
		if (Timer1_get_100msState() == TIMER_TRIGGERED)	/*Prevent tmp75 from overheating*/
     79c:	1d d3       	rcall	.+1594   	; 0xdd8 <Timer1_get_100msState>
     79e:	81 30       	cpi	r24, 0x01	; 1
     7a0:	39 f4       	brne	.+14     	; 0x7b0 <main+0x4c>
		{
			TMP75_Read_Temperature();
     7a2:	5e d3       	rcall	.+1724   	; 0xe60 <TMP75_Read_Temperature>
			iActualTemp = TMP75_Get_Temperature();	//Asks for temp value;
     7a4:	e9 d3       	rcall	.+2002   	; 0xf78 <TMP75_Get_Temperature>
     7a6:	9c 83       	std	Y+4, r25	; 0x04
     7a8:	8b 83       	std	Y+3, r24	; 0x03
			Disp_PrintTemperature(iActualTemp);			//prints to display
     7aa:	8b 81       	ldd	r24, Y+3	; 0x03
     7ac:	9c 81       	ldd	r25, Y+4	; 0x04
     7ae:	1e d4       	rcall	.+2108   	; 0xfec <Disp_PrintTemperature>
		}
				
		if(Timer1_get_10msState() == TIMER_TRIGGERED)
     7b0:	03 d3       	rcall	.+1542   	; 0xdb8 <Timer1_get_10msState>
     7b2:	81 30       	cpi	r24, 0x01	; 1
     7b4:	99 f7       	brne	.-26     	; 0x79c <main+0x38>
		{
			unsigned char ucKeyStatus = keys_get_state();	//Asks for key status
     7b6:	73 df       	rcall	.-282    	; 0x69e <keys_get_state>
     7b8:	8e 83       	std	Y+6, r24	; 0x06
			switch(ucCANStatus)
     7ba:	8d 81       	ldd	r24, Y+5	; 0x05
     7bc:	88 2f       	mov	r24, r24
     7be:	90 e0       	ldi	r25, 0x00	; 0
     7c0:	85 36       	cpi	r24, 0x65	; 101
     7c2:	91 05       	cpc	r25, r1
     7c4:	e1 f4       	brne	.+56     	; 0x7fe <main+0x9a>
			{
				case CAN_NOT_RECEIVED:
				Disp_PrintTarget(iTargetTemp, CAN_NOT_RECEIVED); //Prints target
     7c6:	89 81       	ldd	r24, Y+1	; 0x01
     7c8:	9a 81       	ldd	r25, Y+2	; 0x02
     7ca:	65 e6       	ldi	r22, 0x65	; 101
     7cc:	c5 d4       	rcall	.+2442   	; 0x1158 <Disp_PrintTarget>
				//Test if changes wished--------------
				if (ucKeyStatus == S2_PRESSED)
     7ce:	8e 81       	ldd	r24, Y+6	; 0x06
     7d0:	82 30       	cpi	r24, 0x02	; 2
     7d2:	31 f4       	brne	.+12     	; 0x7e0 <main+0x7c>
				{
					iTargetTemp += 5;
     7d4:	89 81       	ldd	r24, Y+1	; 0x01
     7d6:	9a 81       	ldd	r25, Y+2	; 0x02
     7d8:	05 96       	adiw	r24, 0x05	; 5
     7da:	9a 83       	std	Y+2, r25	; 0x02
     7dc:	89 83       	std	Y+1, r24	; 0x01
     7de:	08 c0       	rjmp	.+16     	; 0x7f0 <main+0x8c>
				}
				else if (ucKeyStatus == S1_PRESSED)
     7e0:	8e 81       	ldd	r24, Y+6	; 0x06
     7e2:	81 30       	cpi	r24, 0x01	; 1
     7e4:	29 f4       	brne	.+10     	; 0x7f0 <main+0x8c>
				{
					iTargetTemp -= 5;
     7e6:	89 81       	ldd	r24, Y+1	; 0x01
     7e8:	9a 81       	ldd	r25, Y+2	; 0x02
     7ea:	05 97       	sbiw	r24, 0x05	; 5
     7ec:	9a 83       	std	Y+2, r25	; 0x02
     7ee:	89 83       	std	Y+1, r24	; 0x01
				}
				//------------------------------------
				
				TempController(iActualTemp,iTargetTemp);
     7f0:	29 81       	ldd	r18, Y+1	; 0x01
     7f2:	3a 81       	ldd	r19, Y+2	; 0x02
     7f4:	8b 81       	ldd	r24, Y+3	; 0x03
     7f6:	9c 81       	ldd	r25, Y+4	; 0x04
     7f8:	b9 01       	movw	r22, r18
     7fa:	38 dc       	rcall	.-1936   	; 0x6c <TempController>
				
				break;
     7fc:	01 c0       	rjmp	.+2      	; 0x800 <main+0x9c>
				
				case CAN_RECEIVED:
				iTargetTemp = iTargetTemp + 0; //moritz:platzhalter
				break;
     7fe:	00 00       	nop
					//LED_red_Off();
				//}
				//
			//}
		//}
	}
     800:	cd cf       	rjmp	.-102    	; 0x79c <main+0x38>

00000802 <MCP2515_Init>:
     802:	cf 93       	push	r28
     804:	df 93       	push	r29
     806:	cd b7       	in	r28, 0x3d	; 61
     808:	de b7       	in	r29, 0x3e	; 62
     80a:	27 97       	sbiw	r28, 0x07	; 7
     80c:	0f b6       	in	r0, 0x3f	; 63
     80e:	f8 94       	cli
     810:	de bf       	out	0x3e, r29	; 62
     812:	0f be       	out	0x3f, r0	; 63
     814:	cd bf       	out	0x3d, r28	; 61
     816:	49 83       	std	Y+1, r20	; 0x01
     818:	5a 83       	std	Y+2, r21	; 0x02
     81a:	6b 83       	std	Y+3, r22	; 0x03
     81c:	7c 83       	std	Y+4, r23	; 0x04
     81e:	8d 83       	std	Y+5, r24	; 0x05
     820:	9e 83       	std	Y+6, r25	; 0x06
     822:	2f 83       	std	Y+7, r18	; 0x07
     824:	49 81       	ldd	r20, Y+1	; 0x01
     826:	5a 81       	ldd	r21, Y+2	; 0x02
     828:	6b 81       	ldd	r22, Y+3	; 0x03
     82a:	7c 81       	ldd	r23, Y+4	; 0x04
     82c:	8d 81       	ldd	r24, Y+5	; 0x05
     82e:	9e 81       	ldd	r25, Y+6	; 0x06
     830:	b6 d1       	rcall	.+876    	; 0xb9e <SPI_Master_SlaveSelectInit>
     832:	20 e0       	ldi	r18, 0x00	; 0
     834:	43 e0       	ldi	r20, 0x03	; 3
     836:	60 e0       	ldi	r22, 0x00	; 0
     838:	80 e0       	ldi	r24, 0x00	; 0
     83a:	68 d1       	rcall	.+720    	; 0xb0c <SPI_Master_Init>
     83c:	20 e8       	ldi	r18, 0x80	; 128
     83e:	49 81       	ldd	r20, Y+1	; 0x01
     840:	5a 81       	ldd	r21, Y+2	; 0x02
     842:	6b 81       	ldd	r22, Y+3	; 0x03
     844:	7c 81       	ldd	r23, Y+4	; 0x04
     846:	8d 81       	ldd	r24, Y+5	; 0x05
     848:	9e 81       	ldd	r25, Y+6	; 0x06
     84a:	a2 d0       	rcall	.+324    	; 0x990 <MCP2515_Set_OpMode>
     84c:	2f 81       	ldd	r18, Y+7	; 0x07
     84e:	49 81       	ldd	r20, Y+1	; 0x01
     850:	5a 81       	ldd	r21, Y+2	; 0x02
     852:	6b 81       	ldd	r22, Y+3	; 0x03
     854:	7c 81       	ldd	r23, Y+4	; 0x04
     856:	8d 81       	ldd	r24, Y+5	; 0x05
     858:	9e 81       	ldd	r25, Y+6	; 0x06
     85a:	ec d0       	rcall	.+472    	; 0xa34 <MCP2515_Set_Baudrate>
     85c:	20 e0       	ldi	r18, 0x00	; 0
     85e:	49 81       	ldd	r20, Y+1	; 0x01
     860:	5a 81       	ldd	r21, Y+2	; 0x02
     862:	6b 81       	ldd	r22, Y+3	; 0x03
     864:	7c 81       	ldd	r23, Y+4	; 0x04
     866:	8d 81       	ldd	r24, Y+5	; 0x05
     868:	9e 81       	ldd	r25, Y+6	; 0x06
     86a:	bb d0       	rcall	.+374    	; 0x9e2 <MCP2515_Change_ClkOut>
     86c:	20 e0       	ldi	r18, 0x00	; 0
     86e:	49 81       	ldd	r20, Y+1	; 0x01
     870:	5a 81       	ldd	r21, Y+2	; 0x02
     872:	6b 81       	ldd	r22, Y+3	; 0x03
     874:	7c 81       	ldd	r23, Y+4	; 0x04
     876:	8d 81       	ldd	r24, Y+5	; 0x05
     878:	9e 81       	ldd	r25, Y+6	; 0x06
     87a:	8a d0       	rcall	.+276    	; 0x990 <MCP2515_Set_OpMode>
     87c:	00 00       	nop
     87e:	27 96       	adiw	r28, 0x07	; 7
     880:	0f b6       	in	r0, 0x3f	; 63
     882:	f8 94       	cli
     884:	de bf       	out	0x3e, r29	; 62
     886:	0f be       	out	0x3f, r0	; 63
     888:	cd bf       	out	0x3d, r28	; 61
     88a:	df 91       	pop	r29
     88c:	cf 91       	pop	r28
     88e:	08 95       	ret

00000890 <MCP2515_Write_Reg>:
     890:	ef 92       	push	r14
     892:	ff 92       	push	r15
     894:	0f 93       	push	r16
     896:	cf 93       	push	r28
     898:	df 93       	push	r29
     89a:	cd b7       	in	r28, 0x3d	; 61
     89c:	de b7       	in	r29, 0x3e	; 62
     89e:	2b 97       	sbiw	r28, 0x0b	; 11
     8a0:	0f b6       	in	r0, 0x3f	; 63
     8a2:	f8 94       	cli
     8a4:	de bf       	out	0x3e, r29	; 62
     8a6:	0f be       	out	0x3f, r0	; 63
     8a8:	cd bf       	out	0x3d, r28	; 61
     8aa:	4a 83       	std	Y+2, r20	; 0x02
     8ac:	5b 83       	std	Y+3, r21	; 0x03
     8ae:	6c 83       	std	Y+4, r22	; 0x04
     8b0:	7d 83       	std	Y+5, r23	; 0x05
     8b2:	8e 83       	std	Y+6, r24	; 0x06
     8b4:	9f 83       	std	Y+7, r25	; 0x07
     8b6:	28 87       	std	Y+8, r18	; 0x08
     8b8:	09 87       	std	Y+9, r16	; 0x09
     8ba:	fb 86       	std	Y+11, r15	; 0x0b
     8bc:	ea 86       	std	Y+10, r14	; 0x0a
     8be:	4a 81       	ldd	r20, Y+2	; 0x02
     8c0:	5b 81       	ldd	r21, Y+3	; 0x03
     8c2:	6c 81       	ldd	r22, Y+4	; 0x04
     8c4:	7d 81       	ldd	r23, Y+5	; 0x05
     8c6:	8e 81       	ldd	r24, Y+6	; 0x06
     8c8:	9f 81       	ldd	r25, Y+7	; 0x07
     8ca:	a8 d1       	rcall	.+848    	; 0xc1c <SPI_Master_Start>
     8cc:	82 e0       	ldi	r24, 0x02	; 2
     8ce:	fd d1       	rcall	.+1018   	; 0xcca <SPI_Master_Write>
     8d0:	88 85       	ldd	r24, Y+8	; 0x08
     8d2:	fb d1       	rcall	.+1014   	; 0xcca <SPI_Master_Write>
     8d4:	19 82       	std	Y+1, r1	; 0x01
     8d6:	0d c0       	rjmp	.+26     	; 0x8f2 <MCP2515_Write_Reg+0x62>
     8d8:	89 81       	ldd	r24, Y+1	; 0x01
     8da:	88 2f       	mov	r24, r24
     8dc:	90 e0       	ldi	r25, 0x00	; 0
     8de:	2a 85       	ldd	r18, Y+10	; 0x0a
     8e0:	3b 85       	ldd	r19, Y+11	; 0x0b
     8e2:	82 0f       	add	r24, r18
     8e4:	93 1f       	adc	r25, r19
     8e6:	fc 01       	movw	r30, r24
     8e8:	80 81       	ld	r24, Z
     8ea:	ef d1       	rcall	.+990    	; 0xcca <SPI_Master_Write>
     8ec:	89 81       	ldd	r24, Y+1	; 0x01
     8ee:	8f 5f       	subi	r24, 0xFF	; 255
     8f0:	89 83       	std	Y+1, r24	; 0x01
     8f2:	99 81       	ldd	r25, Y+1	; 0x01
     8f4:	89 85       	ldd	r24, Y+9	; 0x09
     8f6:	98 17       	cp	r25, r24
     8f8:	78 f3       	brcs	.-34     	; 0x8d8 <MCP2515_Write_Reg+0x48>
     8fa:	4a 81       	ldd	r20, Y+2	; 0x02
     8fc:	5b 81       	ldd	r21, Y+3	; 0x03
     8fe:	6c 81       	ldd	r22, Y+4	; 0x04
     900:	7d 81       	ldd	r23, Y+5	; 0x05
     902:	8e 81       	ldd	r24, Y+6	; 0x06
     904:	9f 81       	ldd	r25, Y+7	; 0x07
     906:	b6 d1       	rcall	.+876    	; 0xc74 <SPI_Master_Stop>
     908:	00 00       	nop
     90a:	2b 96       	adiw	r28, 0x0b	; 11
     90c:	0f b6       	in	r0, 0x3f	; 63
     90e:	f8 94       	cli
     910:	de bf       	out	0x3e, r29	; 62
     912:	0f be       	out	0x3f, r0	; 63
     914:	cd bf       	out	0x3d, r28	; 61
     916:	df 91       	pop	r29
     918:	cf 91       	pop	r28
     91a:	0f 91       	pop	r16
     91c:	ff 90       	pop	r15
     91e:	ef 90       	pop	r14
     920:	08 95       	ret

00000922 <MCP2515_Change_Reg>:
     922:	ef 92       	push	r14
     924:	0f 93       	push	r16
     926:	cf 93       	push	r28
     928:	df 93       	push	r29
     92a:	cd b7       	in	r28, 0x3d	; 61
     92c:	de b7       	in	r29, 0x3e	; 62
     92e:	29 97       	sbiw	r28, 0x09	; 9
     930:	0f b6       	in	r0, 0x3f	; 63
     932:	f8 94       	cli
     934:	de bf       	out	0x3e, r29	; 62
     936:	0f be       	out	0x3f, r0	; 63
     938:	cd bf       	out	0x3d, r28	; 61
     93a:	49 83       	std	Y+1, r20	; 0x01
     93c:	5a 83       	std	Y+2, r21	; 0x02
     93e:	6b 83       	std	Y+3, r22	; 0x03
     940:	7c 83       	std	Y+4, r23	; 0x04
     942:	8d 83       	std	Y+5, r24	; 0x05
     944:	9e 83       	std	Y+6, r25	; 0x06
     946:	2f 83       	std	Y+7, r18	; 0x07
     948:	08 87       	std	Y+8, r16	; 0x08
     94a:	e9 86       	std	Y+9, r14	; 0x09
     94c:	49 81       	ldd	r20, Y+1	; 0x01
     94e:	5a 81       	ldd	r21, Y+2	; 0x02
     950:	6b 81       	ldd	r22, Y+3	; 0x03
     952:	7c 81       	ldd	r23, Y+4	; 0x04
     954:	8d 81       	ldd	r24, Y+5	; 0x05
     956:	9e 81       	ldd	r25, Y+6	; 0x06
     958:	61 d1       	rcall	.+706    	; 0xc1c <SPI_Master_Start>
     95a:	85 e0       	ldi	r24, 0x05	; 5
     95c:	b6 d1       	rcall	.+876    	; 0xcca <SPI_Master_Write>
     95e:	8f 81       	ldd	r24, Y+7	; 0x07
     960:	b4 d1       	rcall	.+872    	; 0xcca <SPI_Master_Write>
     962:	88 85       	ldd	r24, Y+8	; 0x08
     964:	b2 d1       	rcall	.+868    	; 0xcca <SPI_Master_Write>
     966:	89 85       	ldd	r24, Y+9	; 0x09
     968:	b0 d1       	rcall	.+864    	; 0xcca <SPI_Master_Write>
     96a:	49 81       	ldd	r20, Y+1	; 0x01
     96c:	5a 81       	ldd	r21, Y+2	; 0x02
     96e:	6b 81       	ldd	r22, Y+3	; 0x03
     970:	7c 81       	ldd	r23, Y+4	; 0x04
     972:	8d 81       	ldd	r24, Y+5	; 0x05
     974:	9e 81       	ldd	r25, Y+6	; 0x06
     976:	7e d1       	rcall	.+764    	; 0xc74 <SPI_Master_Stop>
     978:	00 00       	nop
     97a:	29 96       	adiw	r28, 0x09	; 9
     97c:	0f b6       	in	r0, 0x3f	; 63
     97e:	f8 94       	cli
     980:	de bf       	out	0x3e, r29	; 62
     982:	0f be       	out	0x3f, r0	; 63
     984:	cd bf       	out	0x3d, r28	; 61
     986:	df 91       	pop	r29
     988:	cf 91       	pop	r28
     98a:	0f 91       	pop	r16
     98c:	ef 90       	pop	r14
     98e:	08 95       	ret

00000990 <MCP2515_Set_OpMode>:
     990:	ef 92       	push	r14
     992:	0f 93       	push	r16
     994:	cf 93       	push	r28
     996:	df 93       	push	r29
     998:	cd b7       	in	r28, 0x3d	; 61
     99a:	de b7       	in	r29, 0x3e	; 62
     99c:	27 97       	sbiw	r28, 0x07	; 7
     99e:	0f b6       	in	r0, 0x3f	; 63
     9a0:	f8 94       	cli
     9a2:	de bf       	out	0x3e, r29	; 62
     9a4:	0f be       	out	0x3f, r0	; 63
     9a6:	cd bf       	out	0x3d, r28	; 61
     9a8:	49 83       	std	Y+1, r20	; 0x01
     9aa:	5a 83       	std	Y+2, r21	; 0x02
     9ac:	6b 83       	std	Y+3, r22	; 0x03
     9ae:	7c 83       	std	Y+4, r23	; 0x04
     9b0:	8d 83       	std	Y+5, r24	; 0x05
     9b2:	9e 83       	std	Y+6, r25	; 0x06
     9b4:	2f 83       	std	Y+7, r18	; 0x07
     9b6:	ef 80       	ldd	r14, Y+7	; 0x07
     9b8:	00 ee       	ldi	r16, 0xE0	; 224
     9ba:	2f e0       	ldi	r18, 0x0F	; 15
     9bc:	49 81       	ldd	r20, Y+1	; 0x01
     9be:	5a 81       	ldd	r21, Y+2	; 0x02
     9c0:	6b 81       	ldd	r22, Y+3	; 0x03
     9c2:	7c 81       	ldd	r23, Y+4	; 0x04
     9c4:	8d 81       	ldd	r24, Y+5	; 0x05
     9c6:	9e 81       	ldd	r25, Y+6	; 0x06
     9c8:	ac df       	rcall	.-168    	; 0x922 <MCP2515_Change_Reg>
     9ca:	00 00       	nop
     9cc:	27 96       	adiw	r28, 0x07	; 7
     9ce:	0f b6       	in	r0, 0x3f	; 63
     9d0:	f8 94       	cli
     9d2:	de bf       	out	0x3e, r29	; 62
     9d4:	0f be       	out	0x3f, r0	; 63
     9d6:	cd bf       	out	0x3d, r28	; 61
     9d8:	df 91       	pop	r29
     9da:	cf 91       	pop	r28
     9dc:	0f 91       	pop	r16
     9de:	ef 90       	pop	r14
     9e0:	08 95       	ret

000009e2 <MCP2515_Change_ClkOut>:
     9e2:	ef 92       	push	r14
     9e4:	0f 93       	push	r16
     9e6:	cf 93       	push	r28
     9e8:	df 93       	push	r29
     9ea:	cd b7       	in	r28, 0x3d	; 61
     9ec:	de b7       	in	r29, 0x3e	; 62
     9ee:	27 97       	sbiw	r28, 0x07	; 7
     9f0:	0f b6       	in	r0, 0x3f	; 63
     9f2:	f8 94       	cli
     9f4:	de bf       	out	0x3e, r29	; 62
     9f6:	0f be       	out	0x3f, r0	; 63
     9f8:	cd bf       	out	0x3d, r28	; 61
     9fa:	49 83       	std	Y+1, r20	; 0x01
     9fc:	5a 83       	std	Y+2, r21	; 0x02
     9fe:	6b 83       	std	Y+3, r22	; 0x03
     a00:	7c 83       	std	Y+4, r23	; 0x04
     a02:	8d 83       	std	Y+5, r24	; 0x05
     a04:	9e 83       	std	Y+6, r25	; 0x06
     a06:	2f 83       	std	Y+7, r18	; 0x07
     a08:	ef 80       	ldd	r14, Y+7	; 0x07
     a0a:	07 e0       	ldi	r16, 0x07	; 7
     a0c:	2f e0       	ldi	r18, 0x0F	; 15
     a0e:	49 81       	ldd	r20, Y+1	; 0x01
     a10:	5a 81       	ldd	r21, Y+2	; 0x02
     a12:	6b 81       	ldd	r22, Y+3	; 0x03
     a14:	7c 81       	ldd	r23, Y+4	; 0x04
     a16:	8d 81       	ldd	r24, Y+5	; 0x05
     a18:	9e 81       	ldd	r25, Y+6	; 0x06
     a1a:	83 df       	rcall	.-250    	; 0x922 <MCP2515_Change_Reg>
     a1c:	00 00       	nop
     a1e:	27 96       	adiw	r28, 0x07	; 7
     a20:	0f b6       	in	r0, 0x3f	; 63
     a22:	f8 94       	cli
     a24:	de bf       	out	0x3e, r29	; 62
     a26:	0f be       	out	0x3f, r0	; 63
     a28:	cd bf       	out	0x3d, r28	; 61
     a2a:	df 91       	pop	r29
     a2c:	cf 91       	pop	r28
     a2e:	0f 91       	pop	r16
     a30:	ef 90       	pop	r14
     a32:	08 95       	ret

00000a34 <MCP2515_Set_Baudrate>:
     a34:	ef 92       	push	r14
     a36:	ff 92       	push	r15
     a38:	0f 93       	push	r16
     a3a:	cf 93       	push	r28
     a3c:	df 93       	push	r29
     a3e:	cd b7       	in	r28, 0x3d	; 61
     a40:	de b7       	in	r29, 0x3e	; 62
     a42:	27 97       	sbiw	r28, 0x07	; 7
     a44:	0f b6       	in	r0, 0x3f	; 63
     a46:	f8 94       	cli
     a48:	de bf       	out	0x3e, r29	; 62
     a4a:	0f be       	out	0x3f, r0	; 63
     a4c:	cd bf       	out	0x3d, r28	; 61
     a4e:	49 83       	std	Y+1, r20	; 0x01
     a50:	5a 83       	std	Y+2, r21	; 0x02
     a52:	6b 83       	std	Y+3, r22	; 0x03
     a54:	7c 83       	std	Y+4, r23	; 0x04
     a56:	8d 83       	std	Y+5, r24	; 0x05
     a58:	9e 83       	std	Y+6, r25	; 0x06
     a5a:	2f 83       	std	Y+7, r18	; 0x07
     a5c:	8f 81       	ldd	r24, Y+7	; 0x07
     a5e:	28 2f       	mov	r18, r24
     a60:	30 e0       	ldi	r19, 0x00	; 0
     a62:	c9 01       	movw	r24, r18
     a64:	88 0f       	add	r24, r24
     a66:	99 1f       	adc	r25, r25
     a68:	82 0f       	add	r24, r18
     a6a:	93 1f       	adc	r25, r19
     a6c:	83 5d       	subi	r24, 0xD3	; 211
     a6e:	9e 4f       	sbci	r25, 0xFE	; 254
     a70:	7c 01       	movw	r14, r24
     a72:	03 e0       	ldi	r16, 0x03	; 3
     a74:	28 e2       	ldi	r18, 0x28	; 40
     a76:	49 81       	ldd	r20, Y+1	; 0x01
     a78:	5a 81       	ldd	r21, Y+2	; 0x02
     a7a:	6b 81       	ldd	r22, Y+3	; 0x03
     a7c:	7c 81       	ldd	r23, Y+4	; 0x04
     a7e:	8d 81       	ldd	r24, Y+5	; 0x05
     a80:	9e 81       	ldd	r25, Y+6	; 0x06
     a82:	06 df       	rcall	.-500    	; 0x890 <MCP2515_Write_Reg>
     a84:	00 00       	nop
     a86:	27 96       	adiw	r28, 0x07	; 7
     a88:	0f b6       	in	r0, 0x3f	; 63
     a8a:	f8 94       	cli
     a8c:	de bf       	out	0x3e, r29	; 62
     a8e:	0f be       	out	0x3f, r0	; 63
     a90:	cd bf       	out	0x3d, r28	; 61
     a92:	df 91       	pop	r29
     a94:	cf 91       	pop	r28
     a96:	0f 91       	pop	r16
     a98:	ff 90       	pop	r15
     a9a:	ef 90       	pop	r14
     a9c:	08 95       	ret

00000a9e <Servo_Init>:

unsigned char ucServoPosition[6] = {44, 38, 30, 23, 16, 10};

void Servo_Init(void)

{
     a9e:	cf 93       	push	r28
     aa0:	df 93       	push	r29
     aa2:	cd b7       	in	r28, 0x3d	; 61
     aa4:	de b7       	in	r29, 0x3e	; 62
	//Date :			31.10.2022
	//Author:			Mattis Ritter
	//Source:
	//Status:			released
	//--------------------------------
	DDRD |= (1 << DDD6); //Port B Bit 1  PWM-Ausgang
     aa6:	8a e2       	ldi	r24, 0x2A	; 42
     aa8:	90 e0       	ldi	r25, 0x00	; 0
     aaa:	2a e2       	ldi	r18, 0x2A	; 42
     aac:	30 e0       	ldi	r19, 0x00	; 0
     aae:	f9 01       	movw	r30, r18
     ab0:	20 81       	ld	r18, Z
     ab2:	20 64       	ori	r18, 0x40	; 64
     ab4:	fc 01       	movw	r30, r24
     ab6:	20 83       	st	Z, r18
	TCCR0A = (1 << WGM00) | (1 << WGM01) | (1 << COM0A1); //Fast-PWM, Clear OC0A on compare match, set OC0A at BOTTOM, (non-inverting mode)
     ab8:	84 e4       	ldi	r24, 0x44	; 68
     aba:	90 e0       	ldi	r25, 0x00	; 0
     abc:	23 e8       	ldi	r18, 0x83	; 131
     abe:	fc 01       	movw	r30, r24
     ac0:	20 83       	st	Z, r18
	TCCR0B = ( 1<< CS00) | ( 1<< CS02); //Prescaler 1024, fPWM = 18.432MHz/1024*256 = 79.3125Hz, TPWM = 14.222ms
     ac2:	85 e4       	ldi	r24, 0x45	; 69
     ac4:	90 e0       	ldi	r25, 0x00	; 0
     ac6:	25 e0       	ldi	r18, 0x05	; 5
     ac8:	fc 01       	movw	r30, r24
     aca:	20 83       	st	Z, r18
	OCR0A = ucServoPosition[0]; //Pulsweite auf 2.5ms setzen --> Stellung 0
     acc:	87 e4       	ldi	r24, 0x47	; 71
     ace:	90 e0       	ldi	r25, 0x00	; 0
     ad0:	20 91 45 01 	lds	r18, 0x0145	; 0x800145 <ucServoPosition>
     ad4:	fc 01       	movw	r30, r24
     ad6:	20 83       	st	Z, r18
}
     ad8:	00 00       	nop
     ada:	df 91       	pop	r29
     adc:	cf 91       	pop	r28
     ade:	08 95       	ret

00000ae0 <Servo_Set_Position>:

void Servo_Set_Position(unsigned char ucPosition)
{
     ae0:	cf 93       	push	r28
     ae2:	df 93       	push	r29
     ae4:	1f 92       	push	r1
     ae6:	cd b7       	in	r28, 0x3d	; 61
     ae8:	de b7       	in	r29, 0x3e	; 62
     aea:	89 83       	std	Y+1, r24	; 0x01
	//Author:			Mattis Ritter
	//Source:
	//Status:			released
	//--------------------------------
	
	OCR0A = ucServoPosition[ucPosition];
     aec:	87 e4       	ldi	r24, 0x47	; 71
     aee:	90 e0       	ldi	r25, 0x00	; 0
     af0:	29 81       	ldd	r18, Y+1	; 0x01
     af2:	22 2f       	mov	r18, r18
     af4:	30 e0       	ldi	r19, 0x00	; 0
     af6:	2b 5b       	subi	r18, 0xBB	; 187
     af8:	3e 4f       	sbci	r19, 0xFE	; 254
     afa:	f9 01       	movw	r30, r18
     afc:	20 81       	ld	r18, Z
     afe:	fc 01       	movw	r30, r24
     b00:	20 83       	st	Z, r18
     b02:	00 00       	nop
     b04:	0f 90       	pop	r0
     b06:	df 91       	pop	r29
     b08:	cf 91       	pop	r28
     b0a:	08 95       	ret

00000b0c <SPI_Master_Init>:
//Rückgabeparameter:		keine
//Revision:
//Status: freigegeben
//****************************************************************************************
void SPI_Master_Init(uint8_t ucspi_interrupt, uint8_t ucspi_data_order, uint8_t ucspi_mode, uint8_t ucspi_sck_freq)
{
     b0c:	cf 93       	push	r28
     b0e:	df 93       	push	r29
     b10:	00 d0       	rcall	.+0      	; 0xb12 <SPI_Master_Init+0x6>
     b12:	00 d0       	rcall	.+0      	; 0xb14 <SPI_Master_Init+0x8>
     b14:	cd b7       	in	r28, 0x3d	; 61
     b16:	de b7       	in	r29, 0x3e	; 62
     b18:	89 83       	std	Y+1, r24	; 0x01
     b1a:	6a 83       	std	Y+2, r22	; 0x02
     b1c:	4b 83       	std	Y+3, r20	; 0x03
     b1e:	2c 83       	std	Y+4, r18	; 0x04
	SPI_MOSI_DDR_REG |= 1 << SPI_MOSI_BIT;		//MOSI-Pin wird auf Ausgang deklariert
     b20:	84 e2       	ldi	r24, 0x24	; 36
     b22:	90 e0       	ldi	r25, 0x00	; 0
     b24:	24 e2       	ldi	r18, 0x24	; 36
     b26:	30 e0       	ldi	r19, 0x00	; 0
     b28:	f9 01       	movw	r30, r18
     b2a:	20 81       	ld	r18, Z
     b2c:	28 60       	ori	r18, 0x08	; 8
     b2e:	fc 01       	movw	r30, r24
     b30:	20 83       	st	Z, r18
	SPI_MISO_DDR_REG &= ~(1 << SPI_MISO_BIT);	//MISO-Pin wird auf Eingang deklariert
     b32:	84 e2       	ldi	r24, 0x24	; 36
     b34:	90 e0       	ldi	r25, 0x00	; 0
     b36:	24 e2       	ldi	r18, 0x24	; 36
     b38:	30 e0       	ldi	r19, 0x00	; 0
     b3a:	f9 01       	movw	r30, r18
     b3c:	20 81       	ld	r18, Z
     b3e:	2f 7e       	andi	r18, 0xEF	; 239
     b40:	fc 01       	movw	r30, r24
     b42:	20 83       	st	Z, r18
	SPI_CLK_DDR_REG |= 1 << SPI_CLK_BIT;		//CLK-Pin wird auf Ausgang deklariert
     b44:	84 e2       	ldi	r24, 0x24	; 36
     b46:	90 e0       	ldi	r25, 0x00	; 0
     b48:	24 e2       	ldi	r18, 0x24	; 36
     b4a:	30 e0       	ldi	r19, 0x00	; 0
     b4c:	f9 01       	movw	r30, r18
     b4e:	20 81       	ld	r18, Z
     b50:	20 62       	ori	r18, 0x20	; 32
     b52:	fc 01       	movw	r30, r24
     b54:	20 83       	st	Z, r18
	
	SPI_CONTROL_REGISTER = SPI_MASTER | SPI_ENABLE | ucspi_interrupt | ucspi_data_order | (ucspi_mode << 2) | (ucspi_sck_freq % 4);
     b56:	8c e4       	ldi	r24, 0x4C	; 76
     b58:	90 e0       	ldi	r25, 0x00	; 0
     b5a:	39 81       	ldd	r19, Y+1	; 0x01
     b5c:	2a 81       	ldd	r18, Y+2	; 0x02
     b5e:	43 2f       	mov	r20, r19
     b60:	42 2b       	or	r20, r18
     b62:	2b 81       	ldd	r18, Y+3	; 0x03
     b64:	22 2f       	mov	r18, r18
     b66:	30 e0       	ldi	r19, 0x00	; 0
     b68:	22 0f       	add	r18, r18
     b6a:	33 1f       	adc	r19, r19
     b6c:	22 0f       	add	r18, r18
     b6e:	33 1f       	adc	r19, r19
     b70:	34 2f       	mov	r19, r20
     b72:	32 2b       	or	r19, r18
     b74:	2c 81       	ldd	r18, Y+4	; 0x04
     b76:	23 70       	andi	r18, 0x03	; 3
     b78:	23 2b       	or	r18, r19
     b7a:	20 65       	ori	r18, 0x50	; 80
     b7c:	fc 01       	movw	r30, r24
     b7e:	20 83       	st	Z, r18
		//µC wird als Master deklariert, die SPI-Schnittstelle wird freigegeben
		//falls gewünscht, es wird das SPI-Interrupt freigegeben und die Bitreihenfolge wird bestimmt
		//der Übertragungsmodus wird bestimmt

	SPI_STATUS_REGISTER = ucspi_sck_freq / 4;
     b80:	8d e4       	ldi	r24, 0x4D	; 77
     b82:	90 e0       	ldi	r25, 0x00	; 0
     b84:	2c 81       	ldd	r18, Y+4	; 0x04
     b86:	26 95       	lsr	r18
     b88:	26 95       	lsr	r18
     b8a:	fc 01       	movw	r30, r24
     b8c:	20 83       	st	Z, r18
		//die gewünschte SPI-Taktfrequenz wird gewählt
}
     b8e:	00 00       	nop
     b90:	0f 90       	pop	r0
     b92:	0f 90       	pop	r0
     b94:	0f 90       	pop	r0
     b96:	0f 90       	pop	r0
     b98:	df 91       	pop	r29
     b9a:	cf 91       	pop	r28
     b9c:	08 95       	ret

00000b9e <SPI_Master_SlaveSelectInit>:
//Rückgabeparameter:		keine
//Revision:
//Status: freigegeben
//****************************************************************************************
void SPI_Master_SlaveSelectInit(tspiHandle tspi_pins)
{
     b9e:	cf 93       	push	r28
     ba0:	df 93       	push	r29
     ba2:	00 d0       	rcall	.+0      	; 0xba4 <SPI_Master_SlaveSelectInit+0x6>
     ba4:	00 d0       	rcall	.+0      	; 0xba6 <SPI_Master_SlaveSelectInit+0x8>
     ba6:	00 d0       	rcall	.+0      	; 0xba8 <SPI_Master_SlaveSelectInit+0xa>
     ba8:	cd b7       	in	r28, 0x3d	; 61
     baa:	de b7       	in	r29, 0x3e	; 62
     bac:	49 83       	std	Y+1, r20	; 0x01
     bae:	5a 83       	std	Y+2, r21	; 0x02
     bb0:	6b 83       	std	Y+3, r22	; 0x03
     bb2:	7c 83       	std	Y+4, r23	; 0x04
     bb4:	8d 83       	std	Y+5, r24	; 0x05
     bb6:	9e 83       	std	Y+6, r25	; 0x06
	*tspi_pins.CS_DDR |= 1 << tspi_pins.CS_pin;
     bb8:	89 81       	ldd	r24, Y+1	; 0x01
     bba:	9a 81       	ldd	r25, Y+2	; 0x02
     bbc:	29 81       	ldd	r18, Y+1	; 0x01
     bbe:	3a 81       	ldd	r19, Y+2	; 0x02
     bc0:	f9 01       	movw	r30, r18
     bc2:	20 81       	ld	r18, Z
     bc4:	62 2f       	mov	r22, r18
     bc6:	2d 81       	ldd	r18, Y+5	; 0x05
     bc8:	42 2f       	mov	r20, r18
     bca:	50 e0       	ldi	r21, 0x00	; 0
     bcc:	21 e0       	ldi	r18, 0x01	; 1
     bce:	30 e0       	ldi	r19, 0x00	; 0
     bd0:	02 c0       	rjmp	.+4      	; 0xbd6 <SPI_Master_SlaveSelectInit+0x38>
     bd2:	22 0f       	add	r18, r18
     bd4:	33 1f       	adc	r19, r19
     bd6:	4a 95       	dec	r20
     bd8:	e2 f7       	brpl	.-8      	; 0xbd2 <SPI_Master_SlaveSelectInit+0x34>
     bda:	26 2b       	or	r18, r22
     bdc:	fc 01       	movw	r30, r24
     bde:	20 83       	st	Z, r18
	*tspi_pins.CS_PORT |= 1 << tspi_pins.CS_pin;
     be0:	8b 81       	ldd	r24, Y+3	; 0x03
     be2:	9c 81       	ldd	r25, Y+4	; 0x04
     be4:	2b 81       	ldd	r18, Y+3	; 0x03
     be6:	3c 81       	ldd	r19, Y+4	; 0x04
     be8:	f9 01       	movw	r30, r18
     bea:	20 81       	ld	r18, Z
     bec:	62 2f       	mov	r22, r18
     bee:	2d 81       	ldd	r18, Y+5	; 0x05
     bf0:	42 2f       	mov	r20, r18
     bf2:	50 e0       	ldi	r21, 0x00	; 0
     bf4:	21 e0       	ldi	r18, 0x01	; 1
     bf6:	30 e0       	ldi	r19, 0x00	; 0
     bf8:	02 c0       	rjmp	.+4      	; 0xbfe <SPI_Master_SlaveSelectInit+0x60>
     bfa:	22 0f       	add	r18, r18
     bfc:	33 1f       	adc	r19, r19
     bfe:	4a 95       	dec	r20
     c00:	e2 f7       	brpl	.-8      	; 0xbfa <SPI_Master_SlaveSelectInit+0x5c>
     c02:	26 2b       	or	r18, r22
     c04:	fc 01       	movw	r30, r24
     c06:	20 83       	st	Z, r18
}
     c08:	00 00       	nop
     c0a:	26 96       	adiw	r28, 0x06	; 6
     c0c:	0f b6       	in	r0, 0x3f	; 63
     c0e:	f8 94       	cli
     c10:	de bf       	out	0x3e, r29	; 62
     c12:	0f be       	out	0x3f, r0	; 63
     c14:	cd bf       	out	0x3d, r28	; 61
     c16:	df 91       	pop	r29
     c18:	cf 91       	pop	r28
     c1a:	08 95       	ret

00000c1c <SPI_Master_Start>:
//Rückgabeparameter:		keine
//Revision:
//Status: freigegeben
//****************************************************************************************
void SPI_Master_Start(tspiHandle tspi_pins)
{
     c1c:	cf 93       	push	r28
     c1e:	df 93       	push	r29
     c20:	00 d0       	rcall	.+0      	; 0xc22 <SPI_Master_Start+0x6>
     c22:	00 d0       	rcall	.+0      	; 0xc24 <SPI_Master_Start+0x8>
     c24:	00 d0       	rcall	.+0      	; 0xc26 <SPI_Master_Start+0xa>
     c26:	cd b7       	in	r28, 0x3d	; 61
     c28:	de b7       	in	r29, 0x3e	; 62
     c2a:	49 83       	std	Y+1, r20	; 0x01
     c2c:	5a 83       	std	Y+2, r21	; 0x02
     c2e:	6b 83       	std	Y+3, r22	; 0x03
     c30:	7c 83       	std	Y+4, r23	; 0x04
     c32:	8d 83       	std	Y+5, r24	; 0x05
     c34:	9e 83       	std	Y+6, r25	; 0x06
	*tspi_pins.CS_PORT &= ~(1 << tspi_pins.CS_pin);
     c36:	8b 81       	ldd	r24, Y+3	; 0x03
     c38:	9c 81       	ldd	r25, Y+4	; 0x04
     c3a:	2b 81       	ldd	r18, Y+3	; 0x03
     c3c:	3c 81       	ldd	r19, Y+4	; 0x04
     c3e:	f9 01       	movw	r30, r18
     c40:	20 81       	ld	r18, Z
     c42:	62 2f       	mov	r22, r18
     c44:	2d 81       	ldd	r18, Y+5	; 0x05
     c46:	42 2f       	mov	r20, r18
     c48:	50 e0       	ldi	r21, 0x00	; 0
     c4a:	21 e0       	ldi	r18, 0x01	; 1
     c4c:	30 e0       	ldi	r19, 0x00	; 0
     c4e:	02 c0       	rjmp	.+4      	; 0xc54 <SPI_Master_Start+0x38>
     c50:	22 0f       	add	r18, r18
     c52:	33 1f       	adc	r19, r19
     c54:	4a 95       	dec	r20
     c56:	e2 f7       	brpl	.-8      	; 0xc50 <SPI_Master_Start+0x34>
     c58:	20 95       	com	r18
     c5a:	26 23       	and	r18, r22
     c5c:	fc 01       	movw	r30, r24
     c5e:	20 83       	st	Z, r18
}
     c60:	00 00       	nop
     c62:	26 96       	adiw	r28, 0x06	; 6
     c64:	0f b6       	in	r0, 0x3f	; 63
     c66:	f8 94       	cli
     c68:	de bf       	out	0x3e, r29	; 62
     c6a:	0f be       	out	0x3f, r0	; 63
     c6c:	cd bf       	out	0x3d, r28	; 61
     c6e:	df 91       	pop	r29
     c70:	cf 91       	pop	r28
     c72:	08 95       	ret

00000c74 <SPI_Master_Stop>:
//Rückgabeparameter:		keine
//Revision:
//Status: freigegeben
//****************************************************************************************
void SPI_Master_Stop(tspiHandle tspi_pins)
{
     c74:	cf 93       	push	r28
     c76:	df 93       	push	r29
     c78:	00 d0       	rcall	.+0      	; 0xc7a <SPI_Master_Stop+0x6>
     c7a:	00 d0       	rcall	.+0      	; 0xc7c <SPI_Master_Stop+0x8>
     c7c:	00 d0       	rcall	.+0      	; 0xc7e <SPI_Master_Stop+0xa>
     c7e:	cd b7       	in	r28, 0x3d	; 61
     c80:	de b7       	in	r29, 0x3e	; 62
     c82:	49 83       	std	Y+1, r20	; 0x01
     c84:	5a 83       	std	Y+2, r21	; 0x02
     c86:	6b 83       	std	Y+3, r22	; 0x03
     c88:	7c 83       	std	Y+4, r23	; 0x04
     c8a:	8d 83       	std	Y+5, r24	; 0x05
     c8c:	9e 83       	std	Y+6, r25	; 0x06
	*tspi_pins.CS_PORT |= (1 << tspi_pins.CS_pin);
     c8e:	8b 81       	ldd	r24, Y+3	; 0x03
     c90:	9c 81       	ldd	r25, Y+4	; 0x04
     c92:	2b 81       	ldd	r18, Y+3	; 0x03
     c94:	3c 81       	ldd	r19, Y+4	; 0x04
     c96:	f9 01       	movw	r30, r18
     c98:	20 81       	ld	r18, Z
     c9a:	62 2f       	mov	r22, r18
     c9c:	2d 81       	ldd	r18, Y+5	; 0x05
     c9e:	42 2f       	mov	r20, r18
     ca0:	50 e0       	ldi	r21, 0x00	; 0
     ca2:	21 e0       	ldi	r18, 0x01	; 1
     ca4:	30 e0       	ldi	r19, 0x00	; 0
     ca6:	02 c0       	rjmp	.+4      	; 0xcac <SPI_Master_Stop+0x38>
     ca8:	22 0f       	add	r18, r18
     caa:	33 1f       	adc	r19, r19
     cac:	4a 95       	dec	r20
     cae:	e2 f7       	brpl	.-8      	; 0xca8 <SPI_Master_Stop+0x34>
     cb0:	26 2b       	or	r18, r22
     cb2:	fc 01       	movw	r30, r24
     cb4:	20 83       	st	Z, r18
}
     cb6:	00 00       	nop
     cb8:	26 96       	adiw	r28, 0x06	; 6
     cba:	0f b6       	in	r0, 0x3f	; 63
     cbc:	f8 94       	cli
     cbe:	de bf       	out	0x3e, r29	; 62
     cc0:	0f be       	out	0x3f, r0	; 63
     cc2:	cd bf       	out	0x3d, r28	; 61
     cc4:	df 91       	pop	r29
     cc6:	cf 91       	pop	r28
     cc8:	08 95       	ret

00000cca <SPI_Master_Write>:
//Rückgabeparameter:		das empfangene Byte
//Revision:
//Status: freigegeben
//****************************************************************************************
uint8_t SPI_Master_Write(uint8_t ucdata)
{
     cca:	cf 93       	push	r28
     ccc:	df 93       	push	r29
     cce:	1f 92       	push	r1
     cd0:	cd b7       	in	r28, 0x3d	; 61
     cd2:	de b7       	in	r29, 0x3e	; 62
     cd4:	89 83       	std	Y+1, r24	; 0x01
	SPI_DATA_REGISTER = ucdata;
     cd6:	8e e4       	ldi	r24, 0x4E	; 78
     cd8:	90 e0       	ldi	r25, 0x00	; 0
     cda:	29 81       	ldd	r18, Y+1	; 0x01
     cdc:	fc 01       	movw	r30, r24
     cde:	20 83       	st	Z, r18
	while(SPI_RUNNING);
     ce0:	00 00       	nop
     ce2:	8d e4       	ldi	r24, 0x4D	; 77
     ce4:	90 e0       	ldi	r25, 0x00	; 0
     ce6:	fc 01       	movw	r30, r24
     ce8:	80 81       	ld	r24, Z
     cea:	88 23       	and	r24, r24
     cec:	d4 f7       	brge	.-12     	; 0xce2 <SPI_Master_Write+0x18>
	return SPI_DATA_REGISTER;
     cee:	8e e4       	ldi	r24, 0x4E	; 78
     cf0:	90 e0       	ldi	r25, 0x00	; 0
     cf2:	fc 01       	movw	r30, r24
     cf4:	80 81       	ld	r24, Z
     cf6:	0f 90       	pop	r0
     cf8:	df 91       	pop	r29
     cfa:	cf 91       	pop	r28
     cfc:	08 95       	ret

00000cfe <Timer1_Init>:
     cfe:	cf 93       	push	r28
     d00:	df 93       	push	r29
     d02:	cd b7       	in	r28, 0x3d	; 61
     d04:	de b7       	in	r29, 0x3e	; 62
     d06:	80 e8       	ldi	r24, 0x80	; 128
     d08:	90 e0       	ldi	r25, 0x00	; 0
     d0a:	20 e8       	ldi	r18, 0x80	; 128
     d0c:	30 e0       	ldi	r19, 0x00	; 0
     d0e:	f9 01       	movw	r30, r18
     d10:	20 81       	ld	r18, Z
     d12:	22 60       	ori	r18, 0x02	; 2
     d14:	fc 01       	movw	r30, r24
     d16:	20 83       	st	Z, r18
     d18:	81 e8       	ldi	r24, 0x81	; 129
     d1a:	90 e0       	ldi	r25, 0x00	; 0
     d1c:	21 e8       	ldi	r18, 0x81	; 129
     d1e:	30 e0       	ldi	r19, 0x00	; 0
     d20:	f9 01       	movw	r30, r18
     d22:	20 81       	ld	r18, Z
     d24:	25 60       	ori	r18, 0x05	; 5
     d26:	fc 01       	movw	r30, r24
     d28:	20 83       	st	Z, r18
     d2a:	87 e4       	ldi	r24, 0x47	; 71
     d2c:	90 e0       	ldi	r25, 0x00	; 0
     d2e:	23 eb       	ldi	r18, 0xB3	; 179
     d30:	fc 01       	movw	r30, r24
     d32:	20 83       	st	Z, r18
     d34:	8f e6       	ldi	r24, 0x6F	; 111
     d36:	90 e0       	ldi	r25, 0x00	; 0
     d38:	2f e6       	ldi	r18, 0x6F	; 111
     d3a:	30 e0       	ldi	r19, 0x00	; 0
     d3c:	f9 01       	movw	r30, r18
     d3e:	20 81       	ld	r18, Z
     d40:	22 60       	ori	r18, 0x02	; 2
     d42:	fc 01       	movw	r30, r24
     d44:	20 83       	st	Z, r18
     d46:	78 94       	sei
     d48:	00 00       	nop
     d4a:	df 91       	pop	r29
     d4c:	cf 91       	pop	r28
     d4e:	08 95       	ret

00000d50 <__vector_11>:
     d50:	1f 92       	push	r1
     d52:	0f 92       	push	r0
     d54:	00 90 5f 00 	lds	r0, 0x005F	; 0x80005f <__TEXT_REGION_LENGTH__+0x7fe05f>
     d58:	0f 92       	push	r0
     d5a:	11 24       	eor	r1, r1
     d5c:	8f 93       	push	r24
     d5e:	cf 93       	push	r28
     d60:	df 93       	push	r29
     d62:	cd b7       	in	r28, 0x3d	; 61
     d64:	de b7       	in	r29, 0x3e	; 62
     d66:	81 e0       	ldi	r24, 0x01	; 1
     d68:	80 93 6e 01 	sts	0x016E, r24	; 0x80016e <__data_end>
     d6c:	80 91 6f 01 	lds	r24, 0x016F	; 0x80016f <ucCNt_1s>
     d70:	8f 5f       	subi	r24, 0xFF	; 255
     d72:	80 93 6f 01 	sts	0x016F, r24	; 0x80016f <ucCNt_1s>
     d76:	80 91 71 01 	lds	r24, 0x0171	; 0x800171 <ucCNt_100ms>
     d7a:	8f 5f       	subi	r24, 0xFF	; 255
     d7c:	80 93 71 01 	sts	0x0171, r24	; 0x800171 <ucCNt_100ms>
     d80:	80 91 6f 01 	lds	r24, 0x016F	; 0x80016f <ucCNt_1s>
     d84:	84 36       	cpi	r24, 0x64	; 100
     d86:	29 f4       	brne	.+10     	; 0xd92 <__vector_11+0x42>
     d88:	10 92 6f 01 	sts	0x016F, r1	; 0x80016f <ucCNt_1s>
     d8c:	81 e0       	ldi	r24, 0x01	; 1
     d8e:	80 93 70 01 	sts	0x0170, r24	; 0x800170 <ucFlag_1s>
     d92:	80 91 71 01 	lds	r24, 0x0171	; 0x800171 <ucCNt_100ms>
     d96:	8a 30       	cpi	r24, 0x0A	; 10
     d98:	29 f4       	brne	.+10     	; 0xda4 <__vector_11+0x54>
     d9a:	10 92 71 01 	sts	0x0171, r1	; 0x800171 <ucCNt_100ms>
     d9e:	81 e0       	ldi	r24, 0x01	; 1
     da0:	80 93 72 01 	sts	0x0172, r24	; 0x800172 <ucFlag_100ms>
     da4:	00 00       	nop
     da6:	df 91       	pop	r29
     da8:	cf 91       	pop	r28
     daa:	8f 91       	pop	r24
     dac:	0f 90       	pop	r0
     dae:	00 92 5f 00 	sts	0x005F, r0	; 0x80005f <__TEXT_REGION_LENGTH__+0x7fe05f>
     db2:	0f 90       	pop	r0
     db4:	1f 90       	pop	r1
     db6:	18 95       	reti

00000db8 <Timer1_get_10msState>:
     db8:	cf 93       	push	r28
     dba:	df 93       	push	r29
     dbc:	cd b7       	in	r28, 0x3d	; 61
     dbe:	de b7       	in	r29, 0x3e	; 62
     dc0:	80 91 6e 01 	lds	r24, 0x016E	; 0x80016e <__data_end>
     dc4:	81 30       	cpi	r24, 0x01	; 1
     dc6:	21 f4       	brne	.+8      	; 0xdd0 <Timer1_get_10msState+0x18>
     dc8:	10 92 6e 01 	sts	0x016E, r1	; 0x80016e <__data_end>
     dcc:	81 e0       	ldi	r24, 0x01	; 1
     dce:	01 c0       	rjmp	.+2      	; 0xdd2 <Timer1_get_10msState+0x1a>
     dd0:	80 e0       	ldi	r24, 0x00	; 0
     dd2:	df 91       	pop	r29
     dd4:	cf 91       	pop	r28
     dd6:	08 95       	ret

00000dd8 <Timer1_get_100msState>:
     dd8:	cf 93       	push	r28
     dda:	df 93       	push	r29
     ddc:	cd b7       	in	r28, 0x3d	; 61
     dde:	de b7       	in	r29, 0x3e	; 62
     de0:	80 91 72 01 	lds	r24, 0x0172	; 0x800172 <ucFlag_100ms>
     de4:	81 30       	cpi	r24, 0x01	; 1
     de6:	21 f4       	brne	.+8      	; 0xdf0 <Timer1_get_100msState+0x18>
     de8:	10 92 72 01 	sts	0x0172, r1	; 0x800172 <ucFlag_100ms>
     dec:	81 e0       	ldi	r24, 0x01	; 1
     dee:	01 c0       	rjmp	.+2      	; 0xdf2 <Timer1_get_100msState+0x1a>
     df0:	80 e0       	ldi	r24, 0x00	; 0
     df2:	df 91       	pop	r29
     df4:	cf 91       	pop	r28
     df6:	08 95       	ret

00000df8 <__vector_7>:
	OCR2A = 179;
	TIMSK2 |= (1 << OCIE2A);
}

ISR(TIMER2_COMPA_vect)
{
     df8:	1f 92       	push	r1
     dfa:	0f 92       	push	r0
     dfc:	00 90 5f 00 	lds	r0, 0x005F	; 0x80005f <__TEXT_REGION_LENGTH__+0x7fe05f>
     e00:	0f 92       	push	r0
     e02:	11 24       	eor	r1, r1
     e04:	8f 93       	push	r24
     e06:	cf 93       	push	r28
     e08:	df 93       	push	r29
     e0a:	cd b7       	in	r28, 0x3d	; 61
     e0c:	de b7       	in	r29, 0x3e	; 62
	uc10MsFlag=1;
     e0e:	81 e0       	ldi	r24, 0x01	; 1
     e10:	80 93 73 01 	sts	0x0173, r24	; 0x800173 <uc10MsFlag>
	uc10MsCnt++;
     e14:	80 91 75 01 	lds	r24, 0x0175	; 0x800175 <uc10MsCnt>
     e18:	8f 5f       	subi	r24, 0xFF	; 255
     e1a:	80 93 75 01 	sts	0x0175, r24	; 0x800175 <uc10MsCnt>

	if (uc10MsCnt==10)
     e1e:	80 91 75 01 	lds	r24, 0x0175	; 0x800175 <uc10MsCnt>
     e22:	8a 30       	cpi	r24, 0x0A	; 10
     e24:	99 f4       	brne	.+38     	; 0xe4c <__vector_7+0x54>
	{
		uc100MsFlag=1;
     e26:	81 e0       	ldi	r24, 0x01	; 1
     e28:	80 93 74 01 	sts	0x0174, r24	; 0x800174 <uc100MsFlag>
		uc100MsCnt++;
     e2c:	80 91 76 01 	lds	r24, 0x0176	; 0x800176 <uc100MsCnt>
     e30:	8f 5f       	subi	r24, 0xFF	; 255
     e32:	80 93 76 01 	sts	0x0176, r24	; 0x800176 <uc100MsCnt>
		uc10MsCnt=0;
     e36:	10 92 75 01 	sts	0x0175, r1	; 0x800175 <uc10MsCnt>
		if (uc100MsCnt==10)
     e3a:	80 91 76 01 	lds	r24, 0x0176	; 0x800176 <uc100MsCnt>
     e3e:	8a 30       	cpi	r24, 0x0A	; 10
     e40:	29 f4       	brne	.+10     	; 0xe4c <__vector_7+0x54>
		{
			uc1sFlag=1;
     e42:	81 e0       	ldi	r24, 0x01	; 1
     e44:	80 93 77 01 	sts	0x0177, r24	; 0x800177 <uc1sFlag>
			uc100MsCnt=0;
     e48:	10 92 76 01 	sts	0x0176, r1	; 0x800176 <uc100MsCnt>
		}
	}
     e4c:	00 00       	nop
     e4e:	df 91       	pop	r29
     e50:	cf 91       	pop	r28
     e52:	8f 91       	pop	r24
     e54:	0f 90       	pop	r0
     e56:	00 92 5f 00 	sts	0x005F, r0	; 0x80005f <__TEXT_REGION_LENGTH__+0x7fe05f>
     e5a:	0f 90       	pop	r0
     e5c:	1f 90       	pop	r1
     e5e:	18 95       	reti

00000e60 <TMP75_Read_Temperature>:
uint8_t uctemp2read = 0b00000000;	//Read temperature register

//Definition of funcitons
//======================================================================================
uint8_t TMP75_Read_Temperature(void)
{
     e60:	cf 93       	push	r28
     e62:	df 93       	push	r29
     e64:	00 d0       	rcall	.+0      	; 0xe66 <TMP75_Read_Temperature+0x6>
     e66:	1f 92       	push	r1
     e68:	cd b7       	in	r28, 0x3d	; 61
     e6a:	de b7       	in	r29, 0x3e	; 62
	//Status:			modified by Moritz
	//--------------------------------
	
	uint8_t ucDeviceAddress, ucTempHigh, ucTempLow;
	//Adresse des TMP75-Temperatursensors bilden
	ucDeviceAddress = (ucdevice_address << 1) | TMP75_DEVICE_TYPE_ADDRESS;
     e6c:	80 91 4b 01 	lds	r24, 0x014B	; 0x80014b <ucdevice_address>
     e70:	88 0f       	add	r24, r24
     e72:	89 83       	std	Y+1, r24	; 0x01
	ucDeviceAddress |= TWI_WRITE;//Write-Modus
	TWI_Master_Start();//Start
     e74:	44 d2       	rcall	.+1160   	; 0x12fe <TWI_Master_Start>
	if((TWI_STATUS_REGISTER) != TWI_START) return TWI_ERROR;
     e76:	89 eb       	ldi	r24, 0xB9	; 185
     e78:	90 e0       	ldi	r25, 0x00	; 0
     e7a:	fc 01       	movw	r30, r24
     e7c:	80 81       	ld	r24, Z
     e7e:	88 2f       	mov	r24, r24
     e80:	90 e0       	ldi	r25, 0x00	; 0
     e82:	88 7f       	andi	r24, 0xF8	; 248
     e84:	99 27       	eor	r25, r25
     e86:	08 97       	sbiw	r24, 0x08	; 8
     e88:	11 f0       	breq	.+4      	; 0xe8e <TMP75_Read_Temperature+0x2e>
     e8a:	81 e0       	ldi	r24, 0x01	; 1
     e8c:	6f c0       	rjmp	.+222    	; 0xf6c <TMP75_Read_Temperature+0x10c>
	TWI_Master_Transmit(ucDeviceAddress); //Device-Adresse senden
     e8e:	89 81       	ldd	r24, Y+1	; 0x01
     e90:	57 d2       	rcall	.+1198   	; 0x1340 <TWI_Master_Transmit>
	if((TWI_STATUS_REGISTER) != TWI_MT_SLA_ACK) return TWI_ERROR;
     e92:	89 eb       	ldi	r24, 0xB9	; 185
     e94:	90 e0       	ldi	r25, 0x00	; 0
     e96:	fc 01       	movw	r30, r24
     e98:	80 81       	ld	r24, Z
     e9a:	88 2f       	mov	r24, r24
     e9c:	90 e0       	ldi	r25, 0x00	; 0
     e9e:	88 7f       	andi	r24, 0xF8	; 248
     ea0:	99 27       	eor	r25, r25
     ea2:	48 97       	sbiw	r24, 0x18	; 24
     ea4:	11 f0       	breq	.+4      	; 0xeaa <TMP75_Read_Temperature+0x4a>
     ea6:	81 e0       	ldi	r24, 0x01	; 1
     ea8:	61 c0       	rjmp	.+194    	; 0xf6c <TMP75_Read_Temperature+0x10c>
	//die Adresse des gewünschten Temperaturregisters wird gesendet
	TWI_Master_Transmit(uctemp2read);
     eaa:	80 91 78 01 	lds	r24, 0x0178	; 0x800178 <uctemp2read>
     eae:	48 d2       	rcall	.+1168   	; 0x1340 <TWI_Master_Transmit>
	if((TWI_STATUS_REGISTER) != TWI_MT_DATA_ACK) return TWI_ERROR;
     eb0:	89 eb       	ldi	r24, 0xB9	; 185
     eb2:	90 e0       	ldi	r25, 0x00	; 0
     eb4:	fc 01       	movw	r30, r24
     eb6:	80 81       	ld	r24, Z
     eb8:	88 2f       	mov	r24, r24
     eba:	90 e0       	ldi	r25, 0x00	; 0
     ebc:	88 7f       	andi	r24, 0xF8	; 248
     ebe:	99 27       	eor	r25, r25
     ec0:	88 97       	sbiw	r24, 0x28	; 40
     ec2:	11 f0       	breq	.+4      	; 0xec8 <TMP75_Read_Temperature+0x68>
     ec4:	81 e0       	ldi	r24, 0x01	; 1
     ec6:	52 c0       	rjmp	.+164    	; 0xf6c <TMP75_Read_Temperature+0x10c>
	TWI_Master_Start(); //Restart
     ec8:	1a d2       	rcall	.+1076   	; 0x12fe <TWI_Master_Start>
	if((TWI_STATUS_REGISTER) != TWI_RESTART) return TWI_ERROR;
     eca:	89 eb       	ldi	r24, 0xB9	; 185
     ecc:	90 e0       	ldi	r25, 0x00	; 0
     ece:	fc 01       	movw	r30, r24
     ed0:	80 81       	ld	r24, Z
     ed2:	88 2f       	mov	r24, r24
     ed4:	90 e0       	ldi	r25, 0x00	; 0
     ed6:	88 7f       	andi	r24, 0xF8	; 248
     ed8:	99 27       	eor	r25, r25
     eda:	40 97       	sbiw	r24, 0x10	; 16
     edc:	11 f0       	breq	.+4      	; 0xee2 <TMP75_Read_Temperature+0x82>
     ede:	81 e0       	ldi	r24, 0x01	; 1
     ee0:	45 c0       	rjmp	.+138    	; 0xf6c <TMP75_Read_Temperature+0x10c>
	ucDeviceAddress = (ucdevice_address << 1) | TMP75_DEVICE_TYPE_ADDRESS | TWI_READ;
     ee2:	80 91 4b 01 	lds	r24, 0x014B	; 0x80014b <ucdevice_address>
     ee6:	88 2f       	mov	r24, r24
     ee8:	90 e0       	ldi	r25, 0x00	; 0
     eea:	88 0f       	add	r24, r24
     eec:	99 1f       	adc	r25, r25
     eee:	81 60       	ori	r24, 0x01	; 1
     ef0:	89 83       	std	Y+1, r24	; 0x01
	TWI_Master_Transmit(ucDeviceAddress); //Device-Adresse im Read-Modus senden
     ef2:	89 81       	ldd	r24, Y+1	; 0x01
     ef4:	25 d2       	rcall	.+1098   	; 0x1340 <TWI_Master_Transmit>
	if((TWI_STATUS_REGISTER) != TWI_MR_SLA_ACK) return TWI_ERROR;
     ef6:	89 eb       	ldi	r24, 0xB9	; 185
     ef8:	90 e0       	ldi	r25, 0x00	; 0
     efa:	fc 01       	movw	r30, r24
     efc:	80 81       	ld	r24, Z
     efe:	88 2f       	mov	r24, r24
     f00:	90 e0       	ldi	r25, 0x00	; 0
     f02:	88 7f       	andi	r24, 0xF8	; 248
     f04:	99 27       	eor	r25, r25
     f06:	80 34       	cpi	r24, 0x40	; 64
     f08:	91 05       	cpc	r25, r1
     f0a:	11 f0       	breq	.+4      	; 0xf10 <TMP75_Read_Temperature+0xb0>
     f0c:	81 e0       	ldi	r24, 0x01	; 1
     f0e:	2e c0       	rjmp	.+92     	; 0xf6c <TMP75_Read_Temperature+0x10c>
	//Inhalt des adressierten Registers wird eingelesen
	ucTempHigh = TWI_Master_Read_Ack();
     f10:	33 d2       	rcall	.+1126   	; 0x1378 <TWI_Master_Read_Ack>
     f12:	8a 83       	std	Y+2, r24	; 0x02
	if((TWI_STATUS_REGISTER) != TWI_MR_DATA_ACK) return TWI_ERROR;
     f14:	89 eb       	ldi	r24, 0xB9	; 185
     f16:	90 e0       	ldi	r25, 0x00	; 0
     f18:	fc 01       	movw	r30, r24
     f1a:	80 81       	ld	r24, Z
     f1c:	88 2f       	mov	r24, r24
     f1e:	90 e0       	ldi	r25, 0x00	; 0
     f20:	88 7f       	andi	r24, 0xF8	; 248
     f22:	99 27       	eor	r25, r25
     f24:	80 35       	cpi	r24, 0x50	; 80
     f26:	91 05       	cpc	r25, r1
     f28:	11 f0       	breq	.+4      	; 0xf2e <TMP75_Read_Temperature+0xce>
     f2a:	81 e0       	ldi	r24, 0x01	; 1
     f2c:	1f c0       	rjmp	.+62     	; 0xf6c <TMP75_Read_Temperature+0x10c>
	ucTempLow = TWI_Master_Read_NAck();
     f2e:	3b d2       	rcall	.+1142   	; 0x13a6 <TWI_Master_Read_NAck>
     f30:	8b 83       	std	Y+3, r24	; 0x03
	if((TWI_STATUS_REGISTER) != TWI_MR_DATA_NACK) return TWI_ERROR;
     f32:	89 eb       	ldi	r24, 0xB9	; 185
     f34:	90 e0       	ldi	r25, 0x00	; 0
     f36:	fc 01       	movw	r30, r24
     f38:	80 81       	ld	r24, Z
     f3a:	88 2f       	mov	r24, r24
     f3c:	90 e0       	ldi	r25, 0x00	; 0
     f3e:	88 7f       	andi	r24, 0xF8	; 248
     f40:	99 27       	eor	r25, r25
     f42:	88 35       	cpi	r24, 0x58	; 88
     f44:	91 05       	cpc	r25, r1
     f46:	11 f0       	breq	.+4      	; 0xf4c <TMP75_Read_Temperature+0xec>
     f48:	81 e0       	ldi	r24, 0x01	; 1
     f4a:	10 c0       	rjmp	.+32     	; 0xf6c <TMP75_Read_Temperature+0x10c>
	TWI_Master_Stop(); //Stopp
     f4c:	ec d1       	rcall	.+984    	; 0x1326 <TWI_Master_Stop>
	iTemperature = (ucTempHigh << 8) + ucTempLow;
     f4e:	8a 81       	ldd	r24, Y+2	; 0x02
     f50:	88 2f       	mov	r24, r24
     f52:	90 e0       	ldi	r25, 0x00	; 0
     f54:	38 2f       	mov	r19, r24
     f56:	22 27       	eor	r18, r18
     f58:	8b 81       	ldd	r24, Y+3	; 0x03
     f5a:	88 2f       	mov	r24, r24
     f5c:	90 e0       	ldi	r25, 0x00	; 0
     f5e:	82 0f       	add	r24, r18
     f60:	93 1f       	adc	r25, r19
     f62:	90 93 7f 01 	sts	0x017F, r25	; 0x80017f <iTemperature+0x1>
     f66:	80 93 7e 01 	sts	0x017E, r24	; 0x80017e <iTemperature>
	return TWI_OK;	
     f6a:	80 e0       	ldi	r24, 0x00	; 0
}
     f6c:	0f 90       	pop	r0
     f6e:	0f 90       	pop	r0
     f70:	0f 90       	pop	r0
     f72:	df 91       	pop	r29
     f74:	cf 91       	pop	r28
     f76:	08 95       	ret

00000f78 <TMP75_Get_Temperature>:
//======================================================================================
//======================================================================================
int TMP75_Get_Temperature(void)
{
     f78:	cf 93       	push	r28
     f7a:	df 93       	push	r29
     f7c:	cd b7       	in	r28, 0x3d	; 61
     f7e:	de b7       	in	r29, 0x3e	; 62
	//Date :			4.11.22
	//Author:			Moritz
	//Source:			
	//Status:			released
	//--------------------------------	
	if (iTemperature >> 15)
     f80:	80 91 7e 01 	lds	r24, 0x017E	; 0x80017e <iTemperature>
     f84:	90 91 7f 01 	lds	r25, 0x017F	; 0x80017f <iTemperature+0x1>
     f88:	99 23       	and	r25, r25
     f8a:	44 f4       	brge	.+16     	; 0xf9c <TMP75_Get_Temperature+0x24>
	{
		iTemperature = (~iTemperature+1) * (-1);
     f8c:	80 91 7e 01 	lds	r24, 0x017E	; 0x80017e <iTemperature>
     f90:	90 91 7f 01 	lds	r25, 0x017F	; 0x80017f <iTemperature+0x1>
     f94:	90 93 7f 01 	sts	0x017F, r25	; 0x80017f <iTemperature+0x1>
     f98:	80 93 7e 01 	sts	0x017E, r24	; 0x80017e <iTemperature>
	}
	return (iTemperature >> 8) * 10 + ((iTemperature >> 7) & 1) * 5;
     f9c:	80 91 7e 01 	lds	r24, 0x017E	; 0x80017e <iTemperature>
     fa0:	90 91 7f 01 	lds	r25, 0x017F	; 0x80017f <iTemperature+0x1>
     fa4:	89 2f       	mov	r24, r25
     fa6:	99 0f       	add	r25, r25
     fa8:	99 0b       	sbc	r25, r25
     faa:	88 0f       	add	r24, r24
     fac:	99 1f       	adc	r25, r25
     fae:	9c 01       	movw	r18, r24
     fb0:	22 0f       	add	r18, r18
     fb2:	33 1f       	adc	r19, r19
     fb4:	22 0f       	add	r18, r18
     fb6:	33 1f       	adc	r19, r19
     fb8:	ac 01       	movw	r20, r24
     fba:	42 0f       	add	r20, r18
     fbc:	53 1f       	adc	r21, r19
     fbe:	80 91 7e 01 	lds	r24, 0x017E	; 0x80017e <iTemperature>
     fc2:	90 91 7f 01 	lds	r25, 0x017F	; 0x80017f <iTemperature+0x1>
     fc6:	88 0f       	add	r24, r24
     fc8:	89 2f       	mov	r24, r25
     fca:	88 1f       	adc	r24, r24
     fcc:	99 0b       	sbc	r25, r25
     fce:	9c 01       	movw	r18, r24
     fd0:	21 70       	andi	r18, 0x01	; 1
     fd2:	33 27       	eor	r19, r19
     fd4:	c9 01       	movw	r24, r18
     fd6:	88 0f       	add	r24, r24
     fd8:	99 1f       	adc	r25, r25
     fda:	88 0f       	add	r24, r24
     fdc:	99 1f       	adc	r25, r25
     fde:	82 0f       	add	r24, r18
     fe0:	93 1f       	adc	r25, r19
     fe2:	84 0f       	add	r24, r20
     fe4:	95 1f       	adc	r25, r21
}
     fe6:	df 91       	pop	r29
     fe8:	cf 91       	pop	r28
     fea:	08 95       	ret

00000fec <Disp_PrintTemperature>:
//======================================================================================
//=====================================================================================================
void Disp_PrintTemperature(int ui2print){
     fec:	cf 93       	push	r28
     fee:	df 93       	push	r29
     ff0:	cd b7       	in	r28, 0x3d	; 61
     ff2:	de b7       	in	r29, 0x3e	; 62
     ff4:	66 97       	sbiw	r28, 0x16	; 22
     ff6:	0f b6       	in	r0, 0x3f	; 63
     ff8:	f8 94       	cli
     ffa:	de bf       	out	0x3e, r29	; 62
     ffc:	0f be       	out	0x3f, r0	; 63
     ffe:	cd bf       	out	0x3d, r28	; 61
    1000:	9e 8b       	std	Y+22, r25	; 0x16
    1002:	8d 8b       	std	Y+21, r24	; 0x15
	//Author:			Moritz
	//Source:
	//Status:			released
	//--------------------------------
	//Prefill of array-----------------------------
	unsigned char ucDisp[16] = " Actual:      C ";
    1004:	80 e1       	ldi	r24, 0x10	; 16
    1006:	ec e4       	ldi	r30, 0x4C	; 76
    1008:	f1 e0       	ldi	r31, 0x01	; 1
    100a:	de 01       	movw	r26, r28
    100c:	15 96       	adiw	r26, 0x05	; 5
    100e:	01 90       	ld	r0, Z+
    1010:	0d 92       	st	X+, r0
    1012:	8a 95       	dec	r24
    1014:	e1 f7       	brne	.-8      	; 0x100e <Disp_PrintTemperature+0x22>
	//---------------------------------------------
	//Handling negative numbers-------------------------------------
	unsigned char ucNegFlag = 0;	//rememberes if number negative
    1016:	19 82       	std	Y+1, r1	; 0x01
	if (ui2print < 0)
    1018:	8d 89       	ldd	r24, Y+21	; 0x15
    101a:	9e 89       	ldd	r25, Y+22	; 0x16
    101c:	99 23       	and	r25, r25
    101e:	4c f4       	brge	.+18     	; 0x1032 <Disp_PrintTemperature+0x46>
	{
		ui2print = ui2print *(-1);
    1020:	8d 89       	ldd	r24, Y+21	; 0x15
    1022:	9e 89       	ldd	r25, Y+22	; 0x16
    1024:	91 95       	neg	r25
    1026:	81 95       	neg	r24
    1028:	91 09       	sbc	r25, r1
    102a:	9e 8b       	std	Y+22, r25	; 0x16
    102c:	8d 8b       	std	Y+21, r24	; 0x15
		ucNegFlag = 1;
    102e:	81 e0       	ldi	r24, 0x01	; 1
    1030:	89 83       	std	Y+1, r24	; 0x01
		
	}
	//---------------------------------------------------------------
	//add temp value to array---------------------------------------------------------------------
	for(unsigned char i = 0; i < 6; i++){
    1032:	1a 82       	std	Y+2, r1	; 0x02
    1034:	38 c0       	rjmp	.+112    	; 0x10a6 <Disp_PrintTemperature+0xba>
		if (i == 1)
    1036:	8a 81       	ldd	r24, Y+2	; 0x02
    1038:	81 30       	cpi	r24, 0x01	; 1
    103a:	a1 f4       	brne	.+40     	; 0x1064 <Disp_PrintTemperature+0x78>
		{
			ucDisp[(13-i)] = '.';
    103c:	8a 81       	ldd	r24, Y+2	; 0x02
    103e:	88 2f       	mov	r24, r24
    1040:	90 e0       	ldi	r25, 0x00	; 0
    1042:	2d e0       	ldi	r18, 0x0D	; 13
    1044:	30 e0       	ldi	r19, 0x00	; 0
    1046:	a9 01       	movw	r20, r18
    1048:	48 1b       	sub	r20, r24
    104a:	59 0b       	sbc	r21, r25
    104c:	ca 01       	movw	r24, r20
    104e:	9e 01       	movw	r18, r28
    1050:	2b 5f       	subi	r18, 0xFB	; 251
    1052:	3f 4f       	sbci	r19, 0xFF	; 255
    1054:	82 0f       	add	r24, r18
    1056:	93 1f       	adc	r25, r19
    1058:	2e e2       	ldi	r18, 0x2E	; 46
    105a:	fc 01       	movw	r30, r24
    105c:	20 83       	st	Z, r18
			i++;
    105e:	8a 81       	ldd	r24, Y+2	; 0x02
    1060:	8f 5f       	subi	r24, 0xFF	; 255
    1062:	8a 83       	std	Y+2, r24	; 0x02
		}
		//Geht stelle für stelle der int Zahl durch und schreibt sie in array, von hinten beginnend
		ucDisp[(13 - i)] = (char)(ui2print % 10) + 48;
    1064:	8a 81       	ldd	r24, Y+2	; 0x02
    1066:	88 2f       	mov	r24, r24
    1068:	90 e0       	ldi	r25, 0x00	; 0
    106a:	2d e0       	ldi	r18, 0x0D	; 13
    106c:	30 e0       	ldi	r19, 0x00	; 0
    106e:	28 1b       	sub	r18, r24
    1070:	39 0b       	sbc	r19, r25
    1072:	8d 89       	ldd	r24, Y+21	; 0x15
    1074:	9e 89       	ldd	r25, Y+22	; 0x16
    1076:	4a e0       	ldi	r20, 0x0A	; 10
    1078:	50 e0       	ldi	r21, 0x00	; 0
    107a:	ba 01       	movw	r22, r20
    107c:	a9 d2       	rcall	.+1362   	; 0x15d0 <__divmodhi4>
    107e:	40 e3       	ldi	r20, 0x30	; 48
    1080:	48 0f       	add	r20, r24
    1082:	ce 01       	movw	r24, r28
    1084:	05 96       	adiw	r24, 0x05	; 5
    1086:	82 0f       	add	r24, r18
    1088:	93 1f       	adc	r25, r19
    108a:	fc 01       	movw	r30, r24
    108c:	40 83       	st	Z, r20
		ui2print = ui2print / 10;
    108e:	8d 89       	ldd	r24, Y+21	; 0x15
    1090:	9e 89       	ldd	r25, Y+22	; 0x16
    1092:	2a e0       	ldi	r18, 0x0A	; 10
    1094:	30 e0       	ldi	r19, 0x00	; 0
    1096:	b9 01       	movw	r22, r18
    1098:	9b d2       	rcall	.+1334   	; 0x15d0 <__divmodhi4>
    109a:	cb 01       	movw	r24, r22
    109c:	9e 8b       	std	Y+22, r25	; 0x16
    109e:	8d 8b       	std	Y+21, r24	; 0x15
		ucNegFlag = 1;
		
	}
	//---------------------------------------------------------------
	//add temp value to array---------------------------------------------------------------------
	for(unsigned char i = 0; i < 6; i++){
    10a0:	8a 81       	ldd	r24, Y+2	; 0x02
    10a2:	8f 5f       	subi	r24, 0xFF	; 255
    10a4:	8a 83       	std	Y+2, r24	; 0x02
    10a6:	8a 81       	ldd	r24, Y+2	; 0x02
    10a8:	86 30       	cpi	r24, 0x06	; 6
    10aa:	28 f2       	brcs	.-118    	; 0x1036 <Disp_PrintTemperature+0x4a>
		ucDisp[(13 - i)] = (char)(ui2print % 10) + 48;
		ui2print = ui2print / 10;
	}
	//---------------------------------------------------------------------------------------------
	//Replace zeros by spaces-----------------------------------------------------------------------
	unsigned char ucNotZero = 0; //varaible to break while loop at first number not 0
    10ac:	1b 82       	std	Y+3, r1	; 0x03
	unsigned char ucPosDispArray = 8; //Position in array for while loop
    10ae:	88 e0       	ldi	r24, 0x08	; 8
    10b0:	8c 83       	std	Y+4, r24	; 0x04
	while (ucNotZero == 0)
    10b2:	3b c0       	rjmp	.+118    	; 0x112a <Disp_PrintTemperature+0x13e>
	{
		//Breaks if number is not 0 or last digit is reached
		if((ucDisp[ucPosDispArray] != '0') || (ucPosDispArray >= 11) )
    10b4:	8c 81       	ldd	r24, Y+4	; 0x04
    10b6:	88 2f       	mov	r24, r24
    10b8:	90 e0       	ldi	r25, 0x00	; 0
    10ba:	9e 01       	movw	r18, r28
    10bc:	2b 5f       	subi	r18, 0xFB	; 251
    10be:	3f 4f       	sbci	r19, 0xFF	; 255
    10c0:	82 0f       	add	r24, r18
    10c2:	93 1f       	adc	r25, r19
    10c4:	fc 01       	movw	r30, r24
    10c6:	80 81       	ld	r24, Z
    10c8:	80 33       	cpi	r24, 0x30	; 48
    10ca:	19 f4       	brne	.+6      	; 0x10d2 <Disp_PrintTemperature+0xe6>
    10cc:	8c 81       	ldd	r24, Y+4	; 0x04
    10ce:	8b 30       	cpi	r24, 0x0B	; 11
    10d0:	90 f0       	brcs	.+36     	; 0x10f6 <Disp_PrintTemperature+0x10a>
		{
			ucNotZero = 1;
    10d2:	81 e0       	ldi	r24, 0x01	; 1
    10d4:	8b 83       	std	Y+3, r24	; 0x03
			if (ucNegFlag == 1) /*showing - if at negative temp*/
    10d6:	89 81       	ldd	r24, Y+1	; 0x01
    10d8:	81 30       	cpi	r24, 0x01	; 1
    10da:	39 f5       	brne	.+78     	; 0x112a <Disp_PrintTemperature+0x13e>
			{
				ucDisp[(ucPosDispArray-1)] = '-';
    10dc:	8c 81       	ldd	r24, Y+4	; 0x04
    10de:	88 2f       	mov	r24, r24
    10e0:	90 e0       	ldi	r25, 0x00	; 0
    10e2:	01 97       	sbiw	r24, 0x01	; 1
    10e4:	9e 01       	movw	r18, r28
    10e6:	2b 5f       	subi	r18, 0xFB	; 251
    10e8:	3f 4f       	sbci	r19, 0xFF	; 255
    10ea:	82 0f       	add	r24, r18
    10ec:	93 1f       	adc	r25, r19
    10ee:	2d e2       	ldi	r18, 0x2D	; 45
    10f0:	fc 01       	movw	r30, r24
    10f2:	20 83       	st	Z, r18
	{
		//Breaks if number is not 0 or last digit is reached
		if((ucDisp[ucPosDispArray] != '0') || (ucPosDispArray >= 11) )
		{
			ucNotZero = 1;
			if (ucNegFlag == 1) /*showing - if at negative temp*/
    10f4:	1a c0       	rjmp	.+52     	; 0x112a <Disp_PrintTemperature+0x13e>
			{
				ucDisp[(ucPosDispArray-1)] = '-';
			}
		}
		else if (ucDisp[ucPosDispArray] == '0')
    10f6:	8c 81       	ldd	r24, Y+4	; 0x04
    10f8:	88 2f       	mov	r24, r24
    10fa:	90 e0       	ldi	r25, 0x00	; 0
    10fc:	9e 01       	movw	r18, r28
    10fe:	2b 5f       	subi	r18, 0xFB	; 251
    1100:	3f 4f       	sbci	r19, 0xFF	; 255
    1102:	82 0f       	add	r24, r18
    1104:	93 1f       	adc	r25, r19
    1106:	fc 01       	movw	r30, r24
    1108:	80 81       	ld	r24, Z
    110a:	80 33       	cpi	r24, 0x30	; 48
    110c:	71 f4       	brne	.+28     	; 0x112a <Disp_PrintTemperature+0x13e>
		{
			ucDisp[ucPosDispArray] = ' ';
    110e:	8c 81       	ldd	r24, Y+4	; 0x04
    1110:	88 2f       	mov	r24, r24
    1112:	90 e0       	ldi	r25, 0x00	; 0
    1114:	9e 01       	movw	r18, r28
    1116:	2b 5f       	subi	r18, 0xFB	; 251
    1118:	3f 4f       	sbci	r19, 0xFF	; 255
    111a:	82 0f       	add	r24, r18
    111c:	93 1f       	adc	r25, r19
    111e:	20 e2       	ldi	r18, 0x20	; 32
    1120:	fc 01       	movw	r30, r24
    1122:	20 83       	st	Z, r18
			ucPosDispArray++;
    1124:	8c 81       	ldd	r24, Y+4	; 0x04
    1126:	8f 5f       	subi	r24, 0xFF	; 255
    1128:	8c 83       	std	Y+4, r24	; 0x04
	}
	//---------------------------------------------------------------------------------------------
	//Replace zeros by spaces-----------------------------------------------------------------------
	unsigned char ucNotZero = 0; //varaible to break while loop at first number not 0
	unsigned char ucPosDispArray = 8; //Position in array for while loop
	while (ucNotZero == 0)
    112a:	8b 81       	ldd	r24, Y+3	; 0x03
    112c:	88 23       	and	r24, r24
    112e:	11 f2       	breq	.-124    	; 0x10b4 <Disp_PrintTemperature+0xc8>
			ucPosDispArray++;
		}
	}
	//------------------------------------------------------------------------------------------------
	//Print to Display-----------------------------------------------
	Display_SetCursor(0,0);
    1130:	60 e0       	ldi	r22, 0x00	; 0
    1132:	80 e0       	ldi	r24, 0x00	; 0
    1134:	ad d9       	rcall	.-3238   	; 0x490 <Display_SetCursor>
	Display_Print(ucDisp,16);
    1136:	ce 01       	movw	r24, r28
    1138:	05 96       	adiw	r24, 0x05	; 5
    113a:	60 e1       	ldi	r22, 0x10	; 16
    113c:	38 da       	rcall	.-2960   	; 0x5ae <Display_Print>
	Display_SetCursor(2,0);		//Platzieren des Cursors auserhalb
    113e:	60 e0       	ldi	r22, 0x00	; 0
    1140:	82 e0       	ldi	r24, 0x02	; 2
    1142:	a6 d9       	rcall	.-3252   	; 0x490 <Display_SetCursor>
	//---------------------------------------------------------------
}
    1144:	00 00       	nop
    1146:	66 96       	adiw	r28, 0x16	; 22
    1148:	0f b6       	in	r0, 0x3f	; 63
    114a:	f8 94       	cli
    114c:	de bf       	out	0x3e, r29	; 62
    114e:	0f be       	out	0x3f, r0	; 63
    1150:	cd bf       	out	0x3d, r28	; 61
    1152:	df 91       	pop	r29
    1154:	cf 91       	pop	r28
    1156:	08 95       	ret

00001158 <Disp_PrintTarget>:
//=====================================================================================================
//=====================================================================================================
void Disp_PrintTarget(int ui2print, unsigned char CANStatus){
    1158:	cf 93       	push	r28
    115a:	df 93       	push	r29
    115c:	cd b7       	in	r28, 0x3d	; 61
    115e:	de b7       	in	r29, 0x3e	; 62
    1160:	67 97       	sbiw	r28, 0x17	; 23
    1162:	0f b6       	in	r0, 0x3f	; 63
    1164:	f8 94       	cli
    1166:	de bf       	out	0x3e, r29	; 62
    1168:	0f be       	out	0x3f, r0	; 63
    116a:	cd bf       	out	0x3d, r28	; 61
    116c:	9e 8b       	std	Y+22, r25	; 0x16
    116e:	8d 8b       	std	Y+21, r24	; 0x15
    1170:	6f 8b       	std	Y+23, r22	; 0x17
	//Author:			Moritz
	//Source:
	//Status:			released
	//--------------------------------
	//Prefill of array-----------------------------
	unsigned char ucDisp[16] = " Target:      C ";
    1172:	80 e1       	ldi	r24, 0x10	; 16
    1174:	ed e5       	ldi	r30, 0x5D	; 93
    1176:	f1 e0       	ldi	r31, 0x01	; 1
    1178:	de 01       	movw	r26, r28
    117a:	15 96       	adiw	r26, 0x05	; 5
    117c:	01 90       	ld	r0, Z+
    117e:	0d 92       	st	X+, r0
    1180:	8a 95       	dec	r24
    1182:	e1 f7       	brne	.-8      	; 0x117c <Disp_PrintTarget+0x24>
	if (CANStatus == 111)
    1184:	8f 89       	ldd	r24, Y+23	; 0x17
    1186:	8f 36       	cpi	r24, 0x6F	; 111
    1188:	21 f4       	brne	.+8      	; 0x1192 <Disp_PrintTarget+0x3a>
	{
		ucDisp[0] = '[';
    118a:	8b e5       	ldi	r24, 0x5B	; 91
    118c:	8d 83       	std	Y+5, r24	; 0x05
		ucDisp[15] = ']';
    118e:	8d e5       	ldi	r24, 0x5D	; 93
    1190:	8c 8b       	std	Y+20, r24	; 0x14
	}
	
	//---------------------------------------------
	//Handling negative numbers-------------------------------------
	unsigned char ucNegFlag = 0;	//rememberes if number negative
    1192:	19 82       	std	Y+1, r1	; 0x01
	if (ui2print < 0)
    1194:	8d 89       	ldd	r24, Y+21	; 0x15
    1196:	9e 89       	ldd	r25, Y+22	; 0x16
    1198:	99 23       	and	r25, r25
    119a:	4c f4       	brge	.+18     	; 0x11ae <Disp_PrintTarget+0x56>
	{
		ui2print = ui2print *(-1);
    119c:	8d 89       	ldd	r24, Y+21	; 0x15
    119e:	9e 89       	ldd	r25, Y+22	; 0x16
    11a0:	91 95       	neg	r25
    11a2:	81 95       	neg	r24
    11a4:	91 09       	sbc	r25, r1
    11a6:	9e 8b       	std	Y+22, r25	; 0x16
    11a8:	8d 8b       	std	Y+21, r24	; 0x15
		ucNegFlag = 1;
    11aa:	81 e0       	ldi	r24, 0x01	; 1
    11ac:	89 83       	std	Y+1, r24	; 0x01
	}
	//---------------------------------------------------------------
	//add temp value to array---------------------------------------------------------------------
	for(unsigned char i = 0; i < 6; i++){
    11ae:	1a 82       	std	Y+2, r1	; 0x02
    11b0:	38 c0       	rjmp	.+112    	; 0x1222 <Disp_PrintTarget+0xca>
		if (i == 1)
    11b2:	8a 81       	ldd	r24, Y+2	; 0x02
    11b4:	81 30       	cpi	r24, 0x01	; 1
    11b6:	a1 f4       	brne	.+40     	; 0x11e0 <Disp_PrintTarget+0x88>
		{
			ucDisp[(13-i)] = '.';
    11b8:	8a 81       	ldd	r24, Y+2	; 0x02
    11ba:	88 2f       	mov	r24, r24
    11bc:	90 e0       	ldi	r25, 0x00	; 0
    11be:	2d e0       	ldi	r18, 0x0D	; 13
    11c0:	30 e0       	ldi	r19, 0x00	; 0
    11c2:	a9 01       	movw	r20, r18
    11c4:	48 1b       	sub	r20, r24
    11c6:	59 0b       	sbc	r21, r25
    11c8:	ca 01       	movw	r24, r20
    11ca:	9e 01       	movw	r18, r28
    11cc:	2b 5f       	subi	r18, 0xFB	; 251
    11ce:	3f 4f       	sbci	r19, 0xFF	; 255
    11d0:	82 0f       	add	r24, r18
    11d2:	93 1f       	adc	r25, r19
    11d4:	2e e2       	ldi	r18, 0x2E	; 46
    11d6:	fc 01       	movw	r30, r24
    11d8:	20 83       	st	Z, r18
			i++;
    11da:	8a 81       	ldd	r24, Y+2	; 0x02
    11dc:	8f 5f       	subi	r24, 0xFF	; 255
    11de:	8a 83       	std	Y+2, r24	; 0x02
		}
		//Geht stelle für stelle der int Zahl durch und schreibt sie in array, von hinten beginnend
		ucDisp[(13 - i)] = (char)(ui2print % 10) + 48;
    11e0:	8a 81       	ldd	r24, Y+2	; 0x02
    11e2:	88 2f       	mov	r24, r24
    11e4:	90 e0       	ldi	r25, 0x00	; 0
    11e6:	2d e0       	ldi	r18, 0x0D	; 13
    11e8:	30 e0       	ldi	r19, 0x00	; 0
    11ea:	28 1b       	sub	r18, r24
    11ec:	39 0b       	sbc	r19, r25
    11ee:	8d 89       	ldd	r24, Y+21	; 0x15
    11f0:	9e 89       	ldd	r25, Y+22	; 0x16
    11f2:	4a e0       	ldi	r20, 0x0A	; 10
    11f4:	50 e0       	ldi	r21, 0x00	; 0
    11f6:	ba 01       	movw	r22, r20
    11f8:	eb d1       	rcall	.+982    	; 0x15d0 <__divmodhi4>
    11fa:	40 e3       	ldi	r20, 0x30	; 48
    11fc:	48 0f       	add	r20, r24
    11fe:	ce 01       	movw	r24, r28
    1200:	05 96       	adiw	r24, 0x05	; 5
    1202:	82 0f       	add	r24, r18
    1204:	93 1f       	adc	r25, r19
    1206:	fc 01       	movw	r30, r24
    1208:	40 83       	st	Z, r20
		ui2print = ui2print / 10;
    120a:	8d 89       	ldd	r24, Y+21	; 0x15
    120c:	9e 89       	ldd	r25, Y+22	; 0x16
    120e:	2a e0       	ldi	r18, 0x0A	; 10
    1210:	30 e0       	ldi	r19, 0x00	; 0
    1212:	b9 01       	movw	r22, r18
    1214:	dd d1       	rcall	.+954    	; 0x15d0 <__divmodhi4>
    1216:	cb 01       	movw	r24, r22
    1218:	9e 8b       	std	Y+22, r25	; 0x16
    121a:	8d 8b       	std	Y+21, r24	; 0x15
		ui2print = ui2print *(-1);
		ucNegFlag = 1;
	}
	//---------------------------------------------------------------
	//add temp value to array---------------------------------------------------------------------
	for(unsigned char i = 0; i < 6; i++){
    121c:	8a 81       	ldd	r24, Y+2	; 0x02
    121e:	8f 5f       	subi	r24, 0xFF	; 255
    1220:	8a 83       	std	Y+2, r24	; 0x02
    1222:	8a 81       	ldd	r24, Y+2	; 0x02
    1224:	86 30       	cpi	r24, 0x06	; 6
    1226:	28 f2       	brcs	.-118    	; 0x11b2 <Disp_PrintTarget+0x5a>
		ucDisp[(13 - i)] = (char)(ui2print % 10) + 48;
		ui2print = ui2print / 10;
	}
	//---------------------------------------------------------------------------------------------
	//Replace zeros by spaces-----------------------------------------------------------------------
	unsigned char ucNotZero = 0; //varaible to break while loop at first number not 0
    1228:	1b 82       	std	Y+3, r1	; 0x03
	unsigned char ucPosDispArray = 8; //Position in array for while loop
    122a:	88 e0       	ldi	r24, 0x08	; 8
    122c:	8c 83       	std	Y+4, r24	; 0x04
	while (ucNotZero == 0)
    122e:	3b c0       	rjmp	.+118    	; 0x12a6 <Disp_PrintTarget+0x14e>
	{
		//Breaks if number is not 0 or last digit is reached
		if((ucDisp[ucPosDispArray] != '0') || (ucPosDispArray >= 10) )
    1230:	8c 81       	ldd	r24, Y+4	; 0x04
    1232:	88 2f       	mov	r24, r24
    1234:	90 e0       	ldi	r25, 0x00	; 0
    1236:	9e 01       	movw	r18, r28
    1238:	2b 5f       	subi	r18, 0xFB	; 251
    123a:	3f 4f       	sbci	r19, 0xFF	; 255
    123c:	82 0f       	add	r24, r18
    123e:	93 1f       	adc	r25, r19
    1240:	fc 01       	movw	r30, r24
    1242:	80 81       	ld	r24, Z
    1244:	80 33       	cpi	r24, 0x30	; 48
    1246:	19 f4       	brne	.+6      	; 0x124e <Disp_PrintTarget+0xf6>
    1248:	8c 81       	ldd	r24, Y+4	; 0x04
    124a:	8a 30       	cpi	r24, 0x0A	; 10
    124c:	90 f0       	brcs	.+36     	; 0x1272 <Disp_PrintTarget+0x11a>
		{
			ucNotZero = 1;
    124e:	81 e0       	ldi	r24, 0x01	; 1
    1250:	8b 83       	std	Y+3, r24	; 0x03
			if (ucNegFlag == 1) /*showing - if at negative temp*/
    1252:	89 81       	ldd	r24, Y+1	; 0x01
    1254:	81 30       	cpi	r24, 0x01	; 1
    1256:	39 f5       	brne	.+78     	; 0x12a6 <Disp_PrintTarget+0x14e>
			{
				ucDisp[(ucPosDispArray-1)] = '-';
    1258:	8c 81       	ldd	r24, Y+4	; 0x04
    125a:	88 2f       	mov	r24, r24
    125c:	90 e0       	ldi	r25, 0x00	; 0
    125e:	01 97       	sbiw	r24, 0x01	; 1
    1260:	9e 01       	movw	r18, r28
    1262:	2b 5f       	subi	r18, 0xFB	; 251
    1264:	3f 4f       	sbci	r19, 0xFF	; 255
    1266:	82 0f       	add	r24, r18
    1268:	93 1f       	adc	r25, r19
    126a:	2d e2       	ldi	r18, 0x2D	; 45
    126c:	fc 01       	movw	r30, r24
    126e:	20 83       	st	Z, r18
	{
		//Breaks if number is not 0 or last digit is reached
		if((ucDisp[ucPosDispArray] != '0') || (ucPosDispArray >= 10) )
		{
			ucNotZero = 1;
			if (ucNegFlag == 1) /*showing - if at negative temp*/
    1270:	1a c0       	rjmp	.+52     	; 0x12a6 <Disp_PrintTarget+0x14e>
			{
				ucDisp[(ucPosDispArray-1)] = '-';
			}
		}
		else if (ucDisp[ucPosDispArray] == '0')
    1272:	8c 81       	ldd	r24, Y+4	; 0x04
    1274:	88 2f       	mov	r24, r24
    1276:	90 e0       	ldi	r25, 0x00	; 0
    1278:	9e 01       	movw	r18, r28
    127a:	2b 5f       	subi	r18, 0xFB	; 251
    127c:	3f 4f       	sbci	r19, 0xFF	; 255
    127e:	82 0f       	add	r24, r18
    1280:	93 1f       	adc	r25, r19
    1282:	fc 01       	movw	r30, r24
    1284:	80 81       	ld	r24, Z
    1286:	80 33       	cpi	r24, 0x30	; 48
    1288:	71 f4       	brne	.+28     	; 0x12a6 <Disp_PrintTarget+0x14e>
		{
			ucDisp[ucPosDispArray] = ' ';
    128a:	8c 81       	ldd	r24, Y+4	; 0x04
    128c:	88 2f       	mov	r24, r24
    128e:	90 e0       	ldi	r25, 0x00	; 0
    1290:	9e 01       	movw	r18, r28
    1292:	2b 5f       	subi	r18, 0xFB	; 251
    1294:	3f 4f       	sbci	r19, 0xFF	; 255
    1296:	82 0f       	add	r24, r18
    1298:	93 1f       	adc	r25, r19
    129a:	20 e2       	ldi	r18, 0x20	; 32
    129c:	fc 01       	movw	r30, r24
    129e:	20 83       	st	Z, r18
			ucPosDispArray++;
    12a0:	8c 81       	ldd	r24, Y+4	; 0x04
    12a2:	8f 5f       	subi	r24, 0xFF	; 255
    12a4:	8c 83       	std	Y+4, r24	; 0x04
	}
	//---------------------------------------------------------------------------------------------
	//Replace zeros by spaces-----------------------------------------------------------------------
	unsigned char ucNotZero = 0; //varaible to break while loop at first number not 0
	unsigned char ucPosDispArray = 8; //Position in array for while loop
	while (ucNotZero == 0)
    12a6:	8b 81       	ldd	r24, Y+3	; 0x03
    12a8:	88 23       	and	r24, r24
    12aa:	11 f2       	breq	.-124    	; 0x1230 <Disp_PrintTarget+0xd8>
			ucPosDispArray++;
		}
	}
	//------------------------------------------------------------------------------------------------
	//Print to Display-----------------------------------------------
	Display_SetCursor(1,0);
    12ac:	60 e0       	ldi	r22, 0x00	; 0
    12ae:	81 e0       	ldi	r24, 0x01	; 1
    12b0:	ef d8       	rcall	.-3618   	; 0x490 <Display_SetCursor>
	Display_Print(ucDisp,16);
    12b2:	ce 01       	movw	r24, r28
    12b4:	05 96       	adiw	r24, 0x05	; 5
    12b6:	60 e1       	ldi	r22, 0x10	; 16
    12b8:	7a d9       	rcall	.-3340   	; 0x5ae <Display_Print>
	Display_SetCursor(2,0);		//Platzieren des Cursors auserhalb
    12ba:	60 e0       	ldi	r22, 0x00	; 0
    12bc:	82 e0       	ldi	r24, 0x02	; 2
    12be:	e8 d8       	rcall	.-3632   	; 0x490 <Display_SetCursor>
	//---------------------------------------------------------------
}
    12c0:	00 00       	nop
    12c2:	67 96       	adiw	r28, 0x17	; 23
    12c4:	0f b6       	in	r0, 0x3f	; 63
    12c6:	f8 94       	cli
    12c8:	de bf       	out	0x3e, r29	; 62
    12ca:	0f be       	out	0x3f, r0	; 63
    12cc:	cd bf       	out	0x3d, r28	; 61
    12ce:	df 91       	pop	r29
    12d0:	cf 91       	pop	r28
    12d2:	08 95       	ret

000012d4 <TWI_Master_Init>:
    12d4:	cf 93       	push	r28
    12d6:	df 93       	push	r29
    12d8:	1f 92       	push	r1
    12da:	cd b7       	in	r28, 0x3d	; 61
    12dc:	de b7       	in	r29, 0x3e	; 62
    12de:	89 83       	std	Y+1, r24	; 0x01
    12e0:	8c eb       	ldi	r24, 0xBC	; 188
    12e2:	90 e0       	ldi	r25, 0x00	; 0
    12e4:	24 e4       	ldi	r18, 0x44	; 68
    12e6:	fc 01       	movw	r30, r24
    12e8:	20 83       	st	Z, r18
    12ea:	88 eb       	ldi	r24, 0xB8	; 184
    12ec:	90 e0       	ldi	r25, 0x00	; 0
    12ee:	29 81       	ldd	r18, Y+1	; 0x01
    12f0:	fc 01       	movw	r30, r24
    12f2:	20 83       	st	Z, r18
    12f4:	00 00       	nop
    12f6:	0f 90       	pop	r0
    12f8:	df 91       	pop	r29
    12fa:	cf 91       	pop	r28
    12fc:	08 95       	ret

000012fe <TWI_Master_Start>:
    12fe:	cf 93       	push	r28
    1300:	df 93       	push	r29
    1302:	cd b7       	in	r28, 0x3d	; 61
    1304:	de b7       	in	r29, 0x3e	; 62
    1306:	8c eb       	ldi	r24, 0xBC	; 188
    1308:	90 e0       	ldi	r25, 0x00	; 0
    130a:	24 ea       	ldi	r18, 0xA4	; 164
    130c:	fc 01       	movw	r30, r24
    130e:	20 83       	st	Z, r18
    1310:	00 00       	nop
    1312:	8c eb       	ldi	r24, 0xBC	; 188
    1314:	90 e0       	ldi	r25, 0x00	; 0
    1316:	fc 01       	movw	r30, r24
    1318:	80 81       	ld	r24, Z
    131a:	88 23       	and	r24, r24
    131c:	d4 f7       	brge	.-12     	; 0x1312 <TWI_Master_Start+0x14>
    131e:	00 00       	nop
    1320:	df 91       	pop	r29
    1322:	cf 91       	pop	r28
    1324:	08 95       	ret

00001326 <TWI_Master_Stop>:
    1326:	cf 93       	push	r28
    1328:	df 93       	push	r29
    132a:	cd b7       	in	r28, 0x3d	; 61
    132c:	de b7       	in	r29, 0x3e	; 62
    132e:	8c eb       	ldi	r24, 0xBC	; 188
    1330:	90 e0       	ldi	r25, 0x00	; 0
    1332:	24 e9       	ldi	r18, 0x94	; 148
    1334:	fc 01       	movw	r30, r24
    1336:	20 83       	st	Z, r18
    1338:	00 00       	nop
    133a:	df 91       	pop	r29
    133c:	cf 91       	pop	r28
    133e:	08 95       	ret

00001340 <TWI_Master_Transmit>:
    1340:	cf 93       	push	r28
    1342:	df 93       	push	r29
    1344:	1f 92       	push	r1
    1346:	cd b7       	in	r28, 0x3d	; 61
    1348:	de b7       	in	r29, 0x3e	; 62
    134a:	89 83       	std	Y+1, r24	; 0x01
    134c:	8b eb       	ldi	r24, 0xBB	; 187
    134e:	90 e0       	ldi	r25, 0x00	; 0
    1350:	29 81       	ldd	r18, Y+1	; 0x01
    1352:	fc 01       	movw	r30, r24
    1354:	20 83       	st	Z, r18
    1356:	8c eb       	ldi	r24, 0xBC	; 188
    1358:	90 e0       	ldi	r25, 0x00	; 0
    135a:	24 e8       	ldi	r18, 0x84	; 132
    135c:	fc 01       	movw	r30, r24
    135e:	20 83       	st	Z, r18
    1360:	00 00       	nop
    1362:	8c eb       	ldi	r24, 0xBC	; 188
    1364:	90 e0       	ldi	r25, 0x00	; 0
    1366:	fc 01       	movw	r30, r24
    1368:	80 81       	ld	r24, Z
    136a:	88 23       	and	r24, r24
    136c:	d4 f7       	brge	.-12     	; 0x1362 <TWI_Master_Transmit+0x22>
    136e:	00 00       	nop
    1370:	0f 90       	pop	r0
    1372:	df 91       	pop	r29
    1374:	cf 91       	pop	r28
    1376:	08 95       	ret

00001378 <TWI_Master_Read_Ack>:
    1378:	cf 93       	push	r28
    137a:	df 93       	push	r29
    137c:	cd b7       	in	r28, 0x3d	; 61
    137e:	de b7       	in	r29, 0x3e	; 62
    1380:	8c eb       	ldi	r24, 0xBC	; 188
    1382:	90 e0       	ldi	r25, 0x00	; 0
    1384:	24 ec       	ldi	r18, 0xC4	; 196
    1386:	fc 01       	movw	r30, r24
    1388:	20 83       	st	Z, r18
    138a:	00 00       	nop
    138c:	8c eb       	ldi	r24, 0xBC	; 188
    138e:	90 e0       	ldi	r25, 0x00	; 0
    1390:	fc 01       	movw	r30, r24
    1392:	80 81       	ld	r24, Z
    1394:	88 23       	and	r24, r24
    1396:	d4 f7       	brge	.-12     	; 0x138c <TWI_Master_Read_Ack+0x14>
    1398:	8b eb       	ldi	r24, 0xBB	; 187
    139a:	90 e0       	ldi	r25, 0x00	; 0
    139c:	fc 01       	movw	r30, r24
    139e:	80 81       	ld	r24, Z
    13a0:	df 91       	pop	r29
    13a2:	cf 91       	pop	r28
    13a4:	08 95       	ret

000013a6 <TWI_Master_Read_NAck>:
    13a6:	cf 93       	push	r28
    13a8:	df 93       	push	r29
    13aa:	cd b7       	in	r28, 0x3d	; 61
    13ac:	de b7       	in	r29, 0x3e	; 62
    13ae:	8c eb       	ldi	r24, 0xBC	; 188
    13b0:	90 e0       	ldi	r25, 0x00	; 0
    13b2:	24 e8       	ldi	r18, 0x84	; 132
    13b4:	fc 01       	movw	r30, r24
    13b6:	20 83       	st	Z, r18
    13b8:	00 00       	nop
    13ba:	8c eb       	ldi	r24, 0xBC	; 188
    13bc:	90 e0       	ldi	r25, 0x00	; 0
    13be:	fc 01       	movw	r30, r24
    13c0:	80 81       	ld	r24, Z
    13c2:	88 23       	and	r24, r24
    13c4:	d4 f7       	brge	.-12     	; 0x13ba <TWI_Master_Read_NAck+0x14>
    13c6:	8b eb       	ldi	r24, 0xBB	; 187
    13c8:	90 e0       	ldi	r25, 0x00	; 0
    13ca:	fc 01       	movw	r30, r24
    13cc:	80 81       	ld	r24, Z
    13ce:	df 91       	pop	r29
    13d0:	cf 91       	pop	r28
    13d2:	08 95       	ret

000013d4 <__vector_24>:
    13d4:	1f 92       	push	r1
    13d6:	0f 92       	push	r0
    13d8:	00 90 5f 00 	lds	r0, 0x005F	; 0x80005f <__TEXT_REGION_LENGTH__+0x7fe05f>
    13dc:	0f 92       	push	r0
    13de:	11 24       	eor	r1, r1
    13e0:	2f 93       	push	r18
    13e2:	3f 93       	push	r19
    13e4:	8f 93       	push	r24
    13e6:	9f 93       	push	r25
    13e8:	ef 93       	push	r30
    13ea:	ff 93       	push	r31
    13ec:	cf 93       	push	r28
    13ee:	df 93       	push	r29
    13f0:	cd b7       	in	r28, 0x3d	; 61
    13f2:	de b7       	in	r29, 0x3e	; 62
    13f4:	81 e0       	ldi	r24, 0x01	; 1
    13f6:	80 93 79 01 	sts	0x0179, r24	; 0x800179 <ucTWI_INT_Flag>
    13fa:	89 eb       	ldi	r24, 0xB9	; 185
    13fc:	90 e0       	ldi	r25, 0x00	; 0
    13fe:	fc 01       	movw	r30, r24
    1400:	80 81       	ld	r24, Z
    1402:	88 7f       	andi	r24, 0xF8	; 248
    1404:	80 93 80 01 	sts	0x0180, r24	; 0x800180 <ucTWSR_Register>
    1408:	8c eb       	ldi	r24, 0xBC	; 188
    140a:	90 e0       	ldi	r25, 0x00	; 0
    140c:	2c eb       	ldi	r18, 0xBC	; 188
    140e:	30 e0       	ldi	r19, 0x00	; 0
    1410:	f9 01       	movw	r30, r18
    1412:	20 81       	ld	r18, Z
    1414:	20 68       	ori	r18, 0x80	; 128
    1416:	fc 01       	movw	r30, r24
    1418:	20 83       	st	Z, r18
    141a:	00 00       	nop
    141c:	df 91       	pop	r29
    141e:	cf 91       	pop	r28
    1420:	ff 91       	pop	r31
    1422:	ef 91       	pop	r30
    1424:	9f 91       	pop	r25
    1426:	8f 91       	pop	r24
    1428:	3f 91       	pop	r19
    142a:	2f 91       	pop	r18
    142c:	0f 90       	pop	r0
    142e:	00 92 5f 00 	sts	0x005F, r0	; 0x80005f <__TEXT_REGION_LENGTH__+0x7fe05f>
    1432:	0f 90       	pop	r0
    1434:	1f 90       	pop	r1
    1436:	18 95       	reti

00001438 <WS2812_Init>:
    1438:	cf 93       	push	r28
    143a:	df 93       	push	r29
    143c:	cd b7       	in	r28, 0x3d	; 61
    143e:	de b7       	in	r29, 0x3e	; 62
    1440:	80 91 22 01 	lds	r24, 0x0122	; 0x800122 <WS2812_1>
    1444:	90 91 23 01 	lds	r25, 0x0123	; 0x800123 <WS2812_1+0x1>
    1448:	20 91 22 01 	lds	r18, 0x0122	; 0x800122 <WS2812_1>
    144c:	30 91 23 01 	lds	r19, 0x0123	; 0x800123 <WS2812_1+0x1>
    1450:	f9 01       	movw	r30, r18
    1452:	20 81       	ld	r18, Z
    1454:	62 2f       	mov	r22, r18
    1456:	20 91 26 01 	lds	r18, 0x0126	; 0x800126 <WS2812_1+0x4>
    145a:	42 2f       	mov	r20, r18
    145c:	50 e0       	ldi	r21, 0x00	; 0
    145e:	21 e0       	ldi	r18, 0x01	; 1
    1460:	30 e0       	ldi	r19, 0x00	; 0
    1462:	02 c0       	rjmp	.+4      	; 0x1468 <WS2812_Init+0x30>
    1464:	22 0f       	add	r18, r18
    1466:	33 1f       	adc	r19, r19
    1468:	4a 95       	dec	r20
    146a:	e2 f7       	brpl	.-8      	; 0x1464 <WS2812_Init+0x2c>
    146c:	26 2b       	or	r18, r22
    146e:	fc 01       	movw	r30, r24
    1470:	20 83       	st	Z, r18
    1472:	00 00       	nop
    1474:	df 91       	pop	r29
    1476:	cf 91       	pop	r28
    1478:	08 95       	ret

0000147a <WS2812_Set_Colour>:
    147a:	cf 93       	push	r28
    147c:	df 93       	push	r29
    147e:	00 d0       	rcall	.+0      	; 0x1480 <WS2812_Set_Colour+0x6>
    1480:	00 d0       	rcall	.+0      	; 0x1482 <WS2812_Set_Colour+0x8>
    1482:	cd b7       	in	r28, 0x3d	; 61
    1484:	de b7       	in	r29, 0x3e	; 62
    1486:	9a 83       	std	Y+2, r25	; 0x02
    1488:	89 83       	std	Y+1, r24	; 0x01
    148a:	7c 83       	std	Y+4, r23	; 0x04
    148c:	6b 83       	std	Y+3, r22	; 0x03
    148e:	80 91 24 01 	lds	r24, 0x0124	; 0x800124 <WS2812_1+0x2>
    1492:	90 91 25 01 	lds	r25, 0x0125	; 0x800125 <WS2812_1+0x3>
    1496:	20 91 24 01 	lds	r18, 0x0124	; 0x800124 <WS2812_1+0x2>
    149a:	30 91 25 01 	lds	r19, 0x0125	; 0x800125 <WS2812_1+0x3>
    149e:	f9 01       	movw	r30, r18
    14a0:	20 81       	ld	r18, Z
    14a2:	62 2f       	mov	r22, r18
    14a4:	20 91 26 01 	lds	r18, 0x0126	; 0x800126 <WS2812_1+0x4>
    14a8:	42 2f       	mov	r20, r18
    14aa:	50 e0       	ldi	r21, 0x00	; 0
    14ac:	21 e0       	ldi	r18, 0x01	; 1
    14ae:	30 e0       	ldi	r19, 0x00	; 0
    14b0:	02 c0       	rjmp	.+4      	; 0x14b6 <WS2812_Set_Colour+0x3c>
    14b2:	22 0f       	add	r18, r18
    14b4:	33 1f       	adc	r19, r19
    14b6:	4a 95       	dec	r20
    14b8:	e2 f7       	brpl	.-8      	; 0x14b2 <WS2812_Set_Colour+0x38>
    14ba:	20 95       	com	r18
    14bc:	26 23       	and	r18, r22
    14be:	fc 01       	movw	r30, r24
    14c0:	20 83       	st	Z, r18
    14c2:	80 91 24 01 	lds	r24, 0x0124	; 0x800124 <WS2812_1+0x2>
    14c6:	90 91 25 01 	lds	r25, 0x0125	; 0x800125 <WS2812_1+0x3>
    14ca:	90 93 88 01 	sts	0x0188, r25	; 0x800188 <PtrPort+0x1>
    14ce:	80 93 87 01 	sts	0x0187, r24	; 0x800187 <PtrPort>
    14d2:	80 91 26 01 	lds	r24, 0x0126	; 0x800126 <WS2812_1+0x4>
    14d6:	80 93 81 01 	sts	0x0181, r24	; 0x800181 <ucPin>
    14da:	89 81       	ldd	r24, Y+1	; 0x01
    14dc:	9a 81       	ldd	r25, Y+2	; 0x02
    14de:	90 93 86 01 	sts	0x0186, r25	; 0x800186 <PtrColourList+0x1>
    14e2:	80 93 85 01 	sts	0x0185, r24	; 0x800185 <PtrColourList>
    14e6:	ce 01       	movw	r24, r28
    14e8:	03 96       	adiw	r24, 0x03	; 3
    14ea:	90 93 83 01 	sts	0x0183, r25	; 0x800183 <PtrLedNumber+0x1>
    14ee:	80 93 82 01 	sts	0x0182, r24	; 0x800182 <PtrLedNumber>
    14f2:	f8 94       	cli
    14f4:	3f 93       	push	r19
    14f6:	4f 93       	push	r20
    14f8:	5f 93       	push	r21
    14fa:	6f 93       	push	r22
    14fc:	7f 93       	push	r23
    14fe:	8f 93       	push	r24
    1500:	9f 93       	push	r25
    1502:	af 93       	push	r26
    1504:	bf 93       	push	r27
    1506:	cf 93       	push	r28
    1508:	df 93       	push	r29
    150a:	ef 93       	push	r30
    150c:	ff 93       	push	r31
    150e:	90 91 81 01 	lds	r25, 0x0181	; 0x800181 <ucPin>
    1512:	a0 91 85 01 	lds	r26, 0x0185	; 0x800185 <PtrColourList>
    1516:	b0 91 86 01 	lds	r27, 0x0186	; 0x800186 <PtrColourList+0x1>
    151a:	e0 91 82 01 	lds	r30, 0x0182	; 0x800182 <PtrLedNumber>
    151e:	f0 91 83 01 	lds	r31, 0x0183	; 0x800183 <PtrLedNumber+0x1>
    1522:	c1 91       	ld	r28, Z+
    1524:	d0 81       	ld	r29, Z
    1526:	e0 91 87 01 	lds	r30, 0x0187	; 0x800187 <PtrPort>
    152a:	f0 e0       	ldi	r31, 0x00	; 0
    152c:	41 e0       	ldi	r20, 0x01	; 1

0000152e <repeat>:
    152e:	90 30       	cpi	r25, 0x00	; 0
    1530:	19 f0       	breq	.+6      	; 0x1538 <label1>
    1532:	9a 95       	dec	r25
    1534:	44 0f       	add	r20, r20
    1536:	fb cf       	rjmp	.-10     	; 0x152e <repeat>

00001538 <label1>:
    1538:	34 2f       	mov	r19, r20
    153a:	30 95       	com	r19

0000153c <loop>:
    153c:	7e ef       	ldi	r23, 0xFE	; 254
    153e:	8d 91       	ld	r24, X+

00001540 <out>:
    1540:	88 0f       	add	r24, r24
    1542:	60 f0       	brcs	.+24     	; 0x155c <set1>

00001544 <set0>:
    1544:	50 81       	ld	r21, Z
    1546:	54 2b       	or	r21, r20
    1548:	50 83       	st	Z, r21
    154a:	50 81       	ld	r21, Z
    154c:	53 23       	and	r21, r19
    154e:	50 83       	st	Z, r21
	...
    1558:	00 00       	nop
    155a:	0c c0       	rjmp	.+24     	; 0x1574 <rot1>

0000155c <set1>:
    155c:	50 81       	ld	r21, Z
    155e:	54 2b       	or	r21, r20
    1560:	50 83       	st	Z, r21
	...
    156e:	50 81       	ld	r21, Z
    1570:	53 23       	and	r21, r19
    1572:	50 83       	st	Z, r21

00001574 <rot1>:
    1574:	77 0f       	add	r23, r23
    1576:	20 f3       	brcs	.-56     	; 0x1540 <out>
    1578:	21 97       	sbiw	r28, 0x01	; 1
    157a:	00 f7       	brcc	.-64     	; 0x153c <loop>
    157c:	ff 91       	pop	r31
    157e:	ef 91       	pop	r30
    1580:	df 91       	pop	r29
    1582:	cf 91       	pop	r28
    1584:	bf 91       	pop	r27
    1586:	af 91       	pop	r26
    1588:	9f 91       	pop	r25
    158a:	8f 91       	pop	r24
    158c:	7f 91       	pop	r23
    158e:	6f 91       	pop	r22
    1590:	5f 91       	pop	r21
    1592:	4f 91       	pop	r20
    1594:	3f 91       	pop	r19
    1596:	78 94       	sei
    1598:	00 00       	nop
    159a:	0f 90       	pop	r0
    159c:	0f 90       	pop	r0
    159e:	0f 90       	pop	r0
    15a0:	0f 90       	pop	r0
    15a2:	df 91       	pop	r29
    15a4:	cf 91       	pop	r28
    15a6:	08 95       	ret

000015a8 <__udivmodhi4>:
    15a8:	aa 1b       	sub	r26, r26
    15aa:	bb 1b       	sub	r27, r27
    15ac:	51 e1       	ldi	r21, 0x11	; 17
    15ae:	07 c0       	rjmp	.+14     	; 0x15be <__udivmodhi4_ep>

000015b0 <__udivmodhi4_loop>:
    15b0:	aa 1f       	adc	r26, r26
    15b2:	bb 1f       	adc	r27, r27
    15b4:	a6 17       	cp	r26, r22
    15b6:	b7 07       	cpc	r27, r23
    15b8:	10 f0       	brcs	.+4      	; 0x15be <__udivmodhi4_ep>
    15ba:	a6 1b       	sub	r26, r22
    15bc:	b7 0b       	sbc	r27, r23

000015be <__udivmodhi4_ep>:
    15be:	88 1f       	adc	r24, r24
    15c0:	99 1f       	adc	r25, r25
    15c2:	5a 95       	dec	r21
    15c4:	a9 f7       	brne	.-22     	; 0x15b0 <__udivmodhi4_loop>
    15c6:	80 95       	com	r24
    15c8:	90 95       	com	r25
    15ca:	bc 01       	movw	r22, r24
    15cc:	cd 01       	movw	r24, r26
    15ce:	08 95       	ret

000015d0 <__divmodhi4>:
    15d0:	97 fb       	bst	r25, 7
    15d2:	07 2e       	mov	r0, r23
    15d4:	16 f4       	brtc	.+4      	; 0x15da <__divmodhi4+0xa>
    15d6:	00 94       	com	r0
    15d8:	06 d0       	rcall	.+12     	; 0x15e6 <__divmodhi4_neg1>
    15da:	77 fd       	sbrc	r23, 7
    15dc:	08 d0       	rcall	.+16     	; 0x15ee <__divmodhi4_neg2>
    15de:	e4 df       	rcall	.-56     	; 0x15a8 <__udivmodhi4>
    15e0:	07 fc       	sbrc	r0, 7
    15e2:	05 d0       	rcall	.+10     	; 0x15ee <__divmodhi4_neg2>
    15e4:	3e f4       	brtc	.+14     	; 0x15f4 <__divmodhi4_exit>

000015e6 <__divmodhi4_neg1>:
    15e6:	90 95       	com	r25
    15e8:	81 95       	neg	r24
    15ea:	9f 4f       	sbci	r25, 0xFF	; 255
    15ec:	08 95       	ret

000015ee <__divmodhi4_neg2>:
    15ee:	70 95       	com	r23
    15f0:	61 95       	neg	r22
    15f2:	7f 4f       	sbci	r23, 0xFF	; 255

000015f4 <__divmodhi4_exit>:
    15f4:	08 95       	ret

000015f6 <_exit>:
    15f6:	f8 94       	cli

000015f8 <__stop_program>:
    15f8:	ff cf       	rjmp	.-2      	; 0x15f8 <__stop_program>
